ARM GAS  C:\Users\seppi\AppData\Local\Temp\ccD8lMwL.s 			page 1


   1              		.syntax unified
   2              		.cpu cortex-m3
   3              		.fpu softvfp
   4              		.eabi_attribute 20, 1
   5              		.eabi_attribute 21, 1
   6              		.eabi_attribute 23, 3
   7              		.eabi_attribute 24, 1
   8              		.eabi_attribute 25, 1
   9              		.eabi_attribute 26, 1
  10              		.eabi_attribute 30, 4
  11              		.eabi_attribute 34, 1
  12              		.eabi_attribute 18, 4
  13              		.thumb
  14              		.syntax unified
  15              		.file	"cyfitter_cfg.c"
  16              		.text
  17              	.Ltext0:
  18              		.cfi_sections	.debug_frame
  19              		.section	.text.SetAnalogRoutingPumps,"ax",%progbits
  20              		.align	1
  21              		.global	SetAnalogRoutingPumps
  22              		.thumb
  23              		.thumb_func
  24              		.type	SetAnalogRoutingPumps, %function
  25              	SetAnalogRoutingPumps:
  26              	.LFB7:
  27              		.file 1 "Generated_Source\\PSoC5\\cyfitter_cfg.c"
   1:Generated_Source\PSoC5/cyfitter_cfg.c **** 
   2:Generated_Source\PSoC5/cyfitter_cfg.c **** /*******************************************************************************
   3:Generated_Source\PSoC5/cyfitter_cfg.c **** * File Name: cyfitter_cfg.c
   4:Generated_Source\PSoC5/cyfitter_cfg.c **** * 
   5:Generated_Source\PSoC5/cyfitter_cfg.c **** * PSoC Creator  4.4
   6:Generated_Source\PSoC5/cyfitter_cfg.c **** *
   7:Generated_Source\PSoC5/cyfitter_cfg.c **** * Description:
   8:Generated_Source\PSoC5/cyfitter_cfg.c **** * This file contains device initialization code.
   9:Generated_Source\PSoC5/cyfitter_cfg.c **** * Except for the user defined sections in CyClockStartupError(), this file should not be modified.
  10:Generated_Source\PSoC5/cyfitter_cfg.c **** * This file is automatically generated by PSoC Creator.
  11:Generated_Source\PSoC5/cyfitter_cfg.c **** *
  12:Generated_Source\PSoC5/cyfitter_cfg.c **** ********************************************************************************
  13:Generated_Source\PSoC5/cyfitter_cfg.c **** * Copyright (c) 2007-2020 Cypress Semiconductor.  All rights reserved.
  14:Generated_Source\PSoC5/cyfitter_cfg.c **** * You may use this file only in accordance with the license, terms, conditions, 
  15:Generated_Source\PSoC5/cyfitter_cfg.c **** * disclaimers, and limitations in the end user license agreement accompanying 
  16:Generated_Source\PSoC5/cyfitter_cfg.c **** * the software package with which this file was provided.
  17:Generated_Source\PSoC5/cyfitter_cfg.c **** ********************************************************************************/
  18:Generated_Source\PSoC5/cyfitter_cfg.c **** 
  19:Generated_Source\PSoC5/cyfitter_cfg.c **** #include <string.h>
  20:Generated_Source\PSoC5/cyfitter_cfg.c **** #include "cytypes.h"
  21:Generated_Source\PSoC5/cyfitter_cfg.c **** #include "cydevice_trm.h"
  22:Generated_Source\PSoC5/cyfitter_cfg.c **** #include "cyfitter.h"
  23:Generated_Source\PSoC5/cyfitter_cfg.c **** #include "CyLib.h"
  24:Generated_Source\PSoC5/cyfitter_cfg.c **** #include "cyfitter_cfg.h"
  25:Generated_Source\PSoC5/cyfitter_cfg.c **** #include "cyapicallbacks.h"
  26:Generated_Source\PSoC5/cyfitter_cfg.c **** 
  27:Generated_Source\PSoC5/cyfitter_cfg.c **** #define CY_NEED_CYCLOCKSTARTUPERROR 1
  28:Generated_Source\PSoC5/cyfitter_cfg.c **** 
  29:Generated_Source\PSoC5/cyfitter_cfg.c **** 
  30:Generated_Source\PSoC5/cyfitter_cfg.c **** #if defined(__GNUC__) || defined(__ARMCC_VERSION)
ARM GAS  C:\Users\seppi\AppData\Local\Temp\ccD8lMwL.s 			page 2


  31:Generated_Source\PSoC5/cyfitter_cfg.c ****     #define CYPACKED 
  32:Generated_Source\PSoC5/cyfitter_cfg.c ****     #define CYPACKED_ATTR __attribute__ ((packed))
  33:Generated_Source\PSoC5/cyfitter_cfg.c ****     #define CYALIGNED __attribute__ ((aligned))
  34:Generated_Source\PSoC5/cyfitter_cfg.c ****     #define CY_CFG_UNUSED __attribute__ ((unused))
  35:Generated_Source\PSoC5/cyfitter_cfg.c ****     #ifndef CY_CFG_SECTION
  36:Generated_Source\PSoC5/cyfitter_cfg.c ****         #define CY_CFG_SECTION __attribute__ ((section(".psocinit")))
  37:Generated_Source\PSoC5/cyfitter_cfg.c ****     #endif
  38:Generated_Source\PSoC5/cyfitter_cfg.c ****     
  39:Generated_Source\PSoC5/cyfitter_cfg.c ****     #if defined(__ARMCC_VERSION)
  40:Generated_Source\PSoC5/cyfitter_cfg.c ****         #define CY_CFG_MEMORY_BARRIER() __memory_changed()
  41:Generated_Source\PSoC5/cyfitter_cfg.c ****     #else
  42:Generated_Source\PSoC5/cyfitter_cfg.c ****         #define CY_CFG_MEMORY_BARRIER() __sync_synchronize()
  43:Generated_Source\PSoC5/cyfitter_cfg.c ****     #endif
  44:Generated_Source\PSoC5/cyfitter_cfg.c ****     
  45:Generated_Source\PSoC5/cyfitter_cfg.c **** #elif defined(__ICCARM__)
  46:Generated_Source\PSoC5/cyfitter_cfg.c ****     #include <intrinsics.h>
  47:Generated_Source\PSoC5/cyfitter_cfg.c **** 
  48:Generated_Source\PSoC5/cyfitter_cfg.c ****     #define CYPACKED __packed
  49:Generated_Source\PSoC5/cyfitter_cfg.c ****     #define CYPACKED_ATTR 
  50:Generated_Source\PSoC5/cyfitter_cfg.c ****     #define CYALIGNED _Pragma("data_alignment=4")
  51:Generated_Source\PSoC5/cyfitter_cfg.c ****     #define CY_CFG_UNUSED _Pragma("diag_suppress=Pe177")
  52:Generated_Source\PSoC5/cyfitter_cfg.c ****     #define CY_CFG_SECTION _Pragma("location=\".psocinit\"")
  53:Generated_Source\PSoC5/cyfitter_cfg.c ****     
  54:Generated_Source\PSoC5/cyfitter_cfg.c ****     #define CY_CFG_MEMORY_BARRIER() __DMB()
  55:Generated_Source\PSoC5/cyfitter_cfg.c ****     
  56:Generated_Source\PSoC5/cyfitter_cfg.c **** #else
  57:Generated_Source\PSoC5/cyfitter_cfg.c ****     #error Unsupported toolchain
  58:Generated_Source\PSoC5/cyfitter_cfg.c **** #endif
  59:Generated_Source\PSoC5/cyfitter_cfg.c **** 
  60:Generated_Source\PSoC5/cyfitter_cfg.c **** #ifndef CYCODE
  61:Generated_Source\PSoC5/cyfitter_cfg.c ****     #define CYCODE
  62:Generated_Source\PSoC5/cyfitter_cfg.c **** #endif
  63:Generated_Source\PSoC5/cyfitter_cfg.c **** #ifndef CYDATA
  64:Generated_Source\PSoC5/cyfitter_cfg.c ****     #define CYDATA
  65:Generated_Source\PSoC5/cyfitter_cfg.c **** #endif
  66:Generated_Source\PSoC5/cyfitter_cfg.c **** #ifndef CYFAR
  67:Generated_Source\PSoC5/cyfitter_cfg.c ****     #define CYFAR
  68:Generated_Source\PSoC5/cyfitter_cfg.c **** #endif
  69:Generated_Source\PSoC5/cyfitter_cfg.c **** #ifndef CYXDATA
  70:Generated_Source\PSoC5/cyfitter_cfg.c ****     #define CYXDATA
  71:Generated_Source\PSoC5/cyfitter_cfg.c **** #endif
  72:Generated_Source\PSoC5/cyfitter_cfg.c **** 
  73:Generated_Source\PSoC5/cyfitter_cfg.c **** 
  74:Generated_Source\PSoC5/cyfitter_cfg.c **** CY_CFG_UNUSED
  75:Generated_Source\PSoC5/cyfitter_cfg.c **** static void CYMEMZERO(void *s, size_t n);
  76:Generated_Source\PSoC5/cyfitter_cfg.c **** CY_CFG_UNUSED
  77:Generated_Source\PSoC5/cyfitter_cfg.c **** static void CYMEMZERO(void *s, size_t n)
  78:Generated_Source\PSoC5/cyfitter_cfg.c **** {
  79:Generated_Source\PSoC5/cyfitter_cfg.c **** 	(void)memset(s, 0, n);
  80:Generated_Source\PSoC5/cyfitter_cfg.c **** }
  81:Generated_Source\PSoC5/cyfitter_cfg.c **** CY_CFG_UNUSED
  82:Generated_Source\PSoC5/cyfitter_cfg.c **** static void CYCONFIGCPY(void *dest, const void *src, size_t n);
  83:Generated_Source\PSoC5/cyfitter_cfg.c **** CY_CFG_UNUSED
  84:Generated_Source\PSoC5/cyfitter_cfg.c **** static void CYCONFIGCPY(void *dest, const void *src, size_t n)
  85:Generated_Source\PSoC5/cyfitter_cfg.c **** {
  86:Generated_Source\PSoC5/cyfitter_cfg.c **** 	(void)memcpy(dest, src, n);
  87:Generated_Source\PSoC5/cyfitter_cfg.c **** }
ARM GAS  C:\Users\seppi\AppData\Local\Temp\ccD8lMwL.s 			page 3


  88:Generated_Source\PSoC5/cyfitter_cfg.c **** CY_CFG_UNUSED
  89:Generated_Source\PSoC5/cyfitter_cfg.c **** static void CYCONFIGCPYCODE(void *dest, const void *src, size_t n);
  90:Generated_Source\PSoC5/cyfitter_cfg.c **** CY_CFG_UNUSED
  91:Generated_Source\PSoC5/cyfitter_cfg.c **** static void CYCONFIGCPYCODE(void *dest, const void *src, size_t n)
  92:Generated_Source\PSoC5/cyfitter_cfg.c **** {
  93:Generated_Source\PSoC5/cyfitter_cfg.c **** 	(void)memcpy(dest, src, n);
  94:Generated_Source\PSoC5/cyfitter_cfg.c **** }
  95:Generated_Source\PSoC5/cyfitter_cfg.c **** 
  96:Generated_Source\PSoC5/cyfitter_cfg.c **** 
  97:Generated_Source\PSoC5/cyfitter_cfg.c **** 
  98:Generated_Source\PSoC5/cyfitter_cfg.c **** 
  99:Generated_Source\PSoC5/cyfitter_cfg.c **** /* Clock startup error codes                                                   */
 100:Generated_Source\PSoC5/cyfitter_cfg.c **** #define CYCLOCKSTART_NO_ERROR    0u
 101:Generated_Source\PSoC5/cyfitter_cfg.c **** #define CYCLOCKSTART_XTAL_ERROR  1u
 102:Generated_Source\PSoC5/cyfitter_cfg.c **** #define CYCLOCKSTART_32KHZ_ERROR 2u
 103:Generated_Source\PSoC5/cyfitter_cfg.c **** #define CYCLOCKSTART_PLL_ERROR   3u
 104:Generated_Source\PSoC5/cyfitter_cfg.c **** #define CYCLOCKSTART_FLL_ERROR   4u
 105:Generated_Source\PSoC5/cyfitter_cfg.c **** #define CYCLOCKSTART_WCO_ERROR   5u
 106:Generated_Source\PSoC5/cyfitter_cfg.c **** 
 107:Generated_Source\PSoC5/cyfitter_cfg.c **** 
 108:Generated_Source\PSoC5/cyfitter_cfg.c **** #ifdef CY_NEED_CYCLOCKSTARTUPERROR
 109:Generated_Source\PSoC5/cyfitter_cfg.c **** /*******************************************************************************
 110:Generated_Source\PSoC5/cyfitter_cfg.c **** * Function Name: CyClockStartupError
 111:Generated_Source\PSoC5/cyfitter_cfg.c **** ********************************************************************************
 112:Generated_Source\PSoC5/cyfitter_cfg.c **** * Summary:
 113:Generated_Source\PSoC5/cyfitter_cfg.c **** *  If an error is encountered during clock configuration (crystal startup error,
 114:Generated_Source\PSoC5/cyfitter_cfg.c **** *  PLL lock error, etc.), the system will end up here.  Unless reimplemented by
 115:Generated_Source\PSoC5/cyfitter_cfg.c **** *  the customer, this function will stop in an infinite loop.
 116:Generated_Source\PSoC5/cyfitter_cfg.c **** *
 117:Generated_Source\PSoC5/cyfitter_cfg.c **** * Parameters:
 118:Generated_Source\PSoC5/cyfitter_cfg.c **** *   void
 119:Generated_Source\PSoC5/cyfitter_cfg.c **** *
 120:Generated_Source\PSoC5/cyfitter_cfg.c **** * Return:
 121:Generated_Source\PSoC5/cyfitter_cfg.c **** *   void
 122:Generated_Source\PSoC5/cyfitter_cfg.c **** *
 123:Generated_Source\PSoC5/cyfitter_cfg.c **** *******************************************************************************/
 124:Generated_Source\PSoC5/cyfitter_cfg.c **** CY_CFG_UNUSED
 125:Generated_Source\PSoC5/cyfitter_cfg.c **** static void CyClockStartupError(uint8 errorCode);
 126:Generated_Source\PSoC5/cyfitter_cfg.c **** CY_CFG_UNUSED
 127:Generated_Source\PSoC5/cyfitter_cfg.c **** static void CyClockStartupError(uint8 errorCode)
 128:Generated_Source\PSoC5/cyfitter_cfg.c **** {
 129:Generated_Source\PSoC5/cyfitter_cfg.c ****     /* To remove the compiler warning if errorCode not used.                */
 130:Generated_Source\PSoC5/cyfitter_cfg.c ****     errorCode = errorCode;
 131:Generated_Source\PSoC5/cyfitter_cfg.c **** 
 132:Generated_Source\PSoC5/cyfitter_cfg.c ****     /* If we have a clock startup error (bad MHz crystal, PLL lock, etc.),  */
 133:Generated_Source\PSoC5/cyfitter_cfg.c ****     /* we will end up here to allow the customer to implement something to  */
 134:Generated_Source\PSoC5/cyfitter_cfg.c ****     /* deal with the clock condition.                                       */
 135:Generated_Source\PSoC5/cyfitter_cfg.c **** 
 136:Generated_Source\PSoC5/cyfitter_cfg.c **** #ifdef CY_CFG_CLOCK_STARTUP_ERROR_CALLBACK
 137:Generated_Source\PSoC5/cyfitter_cfg.c ****     CY_CFG_Clock_Startup_ErrorCallback();
 138:Generated_Source\PSoC5/cyfitter_cfg.c **** #else
 139:Generated_Source\PSoC5/cyfitter_cfg.c ****     /*  If not using CY_CFG_CLOCK_STARTUP_ERROR_CALLBACK, place your clock startup code here. */
 140:Generated_Source\PSoC5/cyfitter_cfg.c ****     /* `#START CyClockStartupError` */
 141:Generated_Source\PSoC5/cyfitter_cfg.c **** 
 142:Generated_Source\PSoC5/cyfitter_cfg.c **** 
 143:Generated_Source\PSoC5/cyfitter_cfg.c **** 
 144:Generated_Source\PSoC5/cyfitter_cfg.c ****     /* `#END` */
ARM GAS  C:\Users\seppi\AppData\Local\Temp\ccD8lMwL.s 			page 4


 145:Generated_Source\PSoC5/cyfitter_cfg.c **** 
 146:Generated_Source\PSoC5/cyfitter_cfg.c ****     while(1) {}
 147:Generated_Source\PSoC5/cyfitter_cfg.c **** #endif /* CY_CFG_CLOCK_STARTUP_ERROR_CALLBACK */
 148:Generated_Source\PSoC5/cyfitter_cfg.c **** }
 149:Generated_Source\PSoC5/cyfitter_cfg.c **** #endif
 150:Generated_Source\PSoC5/cyfitter_cfg.c **** 
 151:Generated_Source\PSoC5/cyfitter_cfg.c **** #define CY_CFG_BASE_ADDR_COUNT 15u
 152:Generated_Source\PSoC5/cyfitter_cfg.c **** CYPACKED typedef struct
 153:Generated_Source\PSoC5/cyfitter_cfg.c **** {
 154:Generated_Source\PSoC5/cyfitter_cfg.c **** 	uint8 offset;
 155:Generated_Source\PSoC5/cyfitter_cfg.c **** 	uint8 value;
 156:Generated_Source\PSoC5/cyfitter_cfg.c **** } CYPACKED_ATTR cy_cfg_addrvalue_t;
 157:Generated_Source\PSoC5/cyfitter_cfg.c **** 
 158:Generated_Source\PSoC5/cyfitter_cfg.c **** #define cy_cfg_addr_table ((const uint32 CYFAR *)0x48000000u)
 159:Generated_Source\PSoC5/cyfitter_cfg.c **** #define cy_cfg_data_table ((const cy_cfg_addrvalue_t CYFAR *)0x4800003Cu)
 160:Generated_Source\PSoC5/cyfitter_cfg.c **** 
 161:Generated_Source\PSoC5/cyfitter_cfg.c **** /* IOPINS0_8 Address: CYREG_PRT15_DM0 Size (bytes): 8 */
 162:Generated_Source\PSoC5/cyfitter_cfg.c **** #define BS_IOPINS0_8_VAL ((const uint8 CYFAR *)0x480002E4u)
 163:Generated_Source\PSoC5/cyfitter_cfg.c **** 
 164:Generated_Source\PSoC5/cyfitter_cfg.c **** /* IOPINS0_1 Address: CYREG_PRT1_DM0 Size (bytes): 8 */
 165:Generated_Source\PSoC5/cyfitter_cfg.c **** #define BS_IOPINS0_1_VAL ((const uint8 CYFAR *)0x480002ECu)
 166:Generated_Source\PSoC5/cyfitter_cfg.c **** 
 167:Generated_Source\PSoC5/cyfitter_cfg.c **** /* IOPINS0_2 Address: CYREG_PRT2_DR Size (bytes): 10 */
 168:Generated_Source\PSoC5/cyfitter_cfg.c **** #define BS_IOPINS0_2_VAL ((const uint8 CYFAR *)0x480002F4u)
 169:Generated_Source\PSoC5/cyfitter_cfg.c **** 
 170:Generated_Source\PSoC5/cyfitter_cfg.c **** /* IOPINS0_6 Address: CYREG_PRT6_DR Size (bytes): 10 */
 171:Generated_Source\PSoC5/cyfitter_cfg.c **** #define BS_IOPINS0_6_VAL ((const uint8 CYFAR *)0x48000300u)
 172:Generated_Source\PSoC5/cyfitter_cfg.c **** 
 173:Generated_Source\PSoC5/cyfitter_cfg.c **** 
 174:Generated_Source\PSoC5/cyfitter_cfg.c **** /*******************************************************************************
 175:Generated_Source\PSoC5/cyfitter_cfg.c **** * Function Name: cfg_write_bytes32
 176:Generated_Source\PSoC5/cyfitter_cfg.c **** ********************************************************************************
 177:Generated_Source\PSoC5/cyfitter_cfg.c **** * Summary:
 178:Generated_Source\PSoC5/cyfitter_cfg.c **** *  This function is used for setting up the chip configuration areas that
 179:Generated_Source\PSoC5/cyfitter_cfg.c **** *  contain relatively sparse data.
 180:Generated_Source\PSoC5/cyfitter_cfg.c **** *
 181:Generated_Source\PSoC5/cyfitter_cfg.c **** * Parameters:
 182:Generated_Source\PSoC5/cyfitter_cfg.c **** *   void
 183:Generated_Source\PSoC5/cyfitter_cfg.c **** *
 184:Generated_Source\PSoC5/cyfitter_cfg.c **** * Return:
 185:Generated_Source\PSoC5/cyfitter_cfg.c **** *   void
 186:Generated_Source\PSoC5/cyfitter_cfg.c **** *
 187:Generated_Source\PSoC5/cyfitter_cfg.c **** *******************************************************************************/
 188:Generated_Source\PSoC5/cyfitter_cfg.c **** static void cfg_write_bytes32(const uint32 addr_table[], const cy_cfg_addrvalue_t data_table[]);
 189:Generated_Source\PSoC5/cyfitter_cfg.c **** static void cfg_write_bytes32(const uint32 addr_table[], const cy_cfg_addrvalue_t data_table[])
 190:Generated_Source\PSoC5/cyfitter_cfg.c **** {
 191:Generated_Source\PSoC5/cyfitter_cfg.c **** 	/* For 32-bit little-endian architectures */
 192:Generated_Source\PSoC5/cyfitter_cfg.c **** 	uint32 i, j = 0u;
 193:Generated_Source\PSoC5/cyfitter_cfg.c **** 	for (i = 0u; i < CY_CFG_BASE_ADDR_COUNT; i++)
 194:Generated_Source\PSoC5/cyfitter_cfg.c **** 	{
 195:Generated_Source\PSoC5/cyfitter_cfg.c **** 		uint32 baseAddr = addr_table[i];
 196:Generated_Source\PSoC5/cyfitter_cfg.c **** 		uint8 count = (uint8)baseAddr;
 197:Generated_Source\PSoC5/cyfitter_cfg.c **** 		baseAddr &= 0xFFFFFF00u;
 198:Generated_Source\PSoC5/cyfitter_cfg.c **** 		while (count != 0u)
 199:Generated_Source\PSoC5/cyfitter_cfg.c **** 		{
 200:Generated_Source\PSoC5/cyfitter_cfg.c **** 			CY_SET_REG8((void *)(baseAddr + data_table[j].offset), data_table[j].value);
 201:Generated_Source\PSoC5/cyfitter_cfg.c **** 			j++;
ARM GAS  C:\Users\seppi\AppData\Local\Temp\ccD8lMwL.s 			page 5


 202:Generated_Source\PSoC5/cyfitter_cfg.c **** 			count--;
 203:Generated_Source\PSoC5/cyfitter_cfg.c **** 		}
 204:Generated_Source\PSoC5/cyfitter_cfg.c **** 	}
 205:Generated_Source\PSoC5/cyfitter_cfg.c **** }
 206:Generated_Source\PSoC5/cyfitter_cfg.c **** 
 207:Generated_Source\PSoC5/cyfitter_cfg.c **** /*******************************************************************************
 208:Generated_Source\PSoC5/cyfitter_cfg.c **** * Function Name: ClockSetup
 209:Generated_Source\PSoC5/cyfitter_cfg.c **** ********************************************************************************
 210:Generated_Source\PSoC5/cyfitter_cfg.c **** *
 211:Generated_Source\PSoC5/cyfitter_cfg.c **** * Summary:
 212:Generated_Source\PSoC5/cyfitter_cfg.c **** *  Performs the initialization of all of the clocks in the device based on the
 213:Generated_Source\PSoC5/cyfitter_cfg.c **** *  settings in the Clock tab of the DWR.  This includes enabling the requested
 214:Generated_Source\PSoC5/cyfitter_cfg.c **** *  clocks and setting the necessary dividers to produce the desired frequency. 
 215:Generated_Source\PSoC5/cyfitter_cfg.c **** *
 216:Generated_Source\PSoC5/cyfitter_cfg.c **** * Parameters:
 217:Generated_Source\PSoC5/cyfitter_cfg.c **** *  void
 218:Generated_Source\PSoC5/cyfitter_cfg.c **** *
 219:Generated_Source\PSoC5/cyfitter_cfg.c **** * Return:
 220:Generated_Source\PSoC5/cyfitter_cfg.c **** *  void
 221:Generated_Source\PSoC5/cyfitter_cfg.c **** *
 222:Generated_Source\PSoC5/cyfitter_cfg.c **** *******************************************************************************/
 223:Generated_Source\PSoC5/cyfitter_cfg.c **** static void ClockSetup(void);
 224:Generated_Source\PSoC5/cyfitter_cfg.c **** static void ClockSetup(void)
 225:Generated_Source\PSoC5/cyfitter_cfg.c **** {
 226:Generated_Source\PSoC5/cyfitter_cfg.c **** 	uint32 timeout;
 227:Generated_Source\PSoC5/cyfitter_cfg.c **** 	uint8 pllLock;
 228:Generated_Source\PSoC5/cyfitter_cfg.c **** 
 229:Generated_Source\PSoC5/cyfitter_cfg.c **** 
 230:Generated_Source\PSoC5/cyfitter_cfg.c **** 	/* Configure Digital Clocks based on settings from Clock DWR */
 231:Generated_Source\PSoC5/cyfitter_cfg.c **** 	CY_SET_XTND_REG16((void CYFAR *)(CYREG_CLKDIST_DCFG0_CFG0), 0x0019u);
 232:Generated_Source\PSoC5/cyfitter_cfg.c **** 	CY_SET_XTND_REG8((void CYFAR *)(CYREG_CLKDIST_DCFG0_CFG0 + 0x2u), 0x18u);
 233:Generated_Source\PSoC5/cyfitter_cfg.c **** 
 234:Generated_Source\PSoC5/cyfitter_cfg.c **** 	/* Configure ILO based on settings from Clock DWR */
 235:Generated_Source\PSoC5/cyfitter_cfg.c **** 	CY_SET_XTND_REG8((void CYFAR *)(CYREG_SLOWCLK_ILO_CR0), 0x02u);
 236:Generated_Source\PSoC5/cyfitter_cfg.c **** 	CY_SET_XTND_REG8((void CYFAR *)(CYREG_CLKDIST_CR), 0x08u);
 237:Generated_Source\PSoC5/cyfitter_cfg.c **** 
 238:Generated_Source\PSoC5/cyfitter_cfg.c **** 	/* Configure IMO based on settings from Clock DWR */
 239:Generated_Source\PSoC5/cyfitter_cfg.c **** 	CY_SET_XTND_REG8((void CYFAR *)(CYREG_FASTCLK_IMO_CR), 0x03u);
 240:Generated_Source\PSoC5/cyfitter_cfg.c **** 	CY_SET_XTND_REG8((void CYFAR *)(CYREG_IMO_TR1), (CY_GET_XTND_REG8((void CYFAR *)CYREG_FLSHID_CUST_
 241:Generated_Source\PSoC5/cyfitter_cfg.c **** 
 242:Generated_Source\PSoC5/cyfitter_cfg.c **** 	/* Configure PLL based on settings from Clock DWR */
 243:Generated_Source\PSoC5/cyfitter_cfg.c **** 	CY_SET_XTND_REG16((void CYFAR *)(CYREG_FASTCLK_PLL_P), 0x0008u);
 244:Generated_Source\PSoC5/cyfitter_cfg.c **** 	CY_SET_XTND_REG16((void CYFAR *)(CYREG_FASTCLK_PLL_CFG0), 0x1251u);
 245:Generated_Source\PSoC5/cyfitter_cfg.c **** 	/* Wait up to 250us for the PLL to lock */
 246:Generated_Source\PSoC5/cyfitter_cfg.c **** 	pllLock = 0u;
 247:Generated_Source\PSoC5/cyfitter_cfg.c **** 	for (timeout = 250u / 10u; (timeout > 0u) && (pllLock != 0x03u); timeout--)
 248:Generated_Source\PSoC5/cyfitter_cfg.c **** 	{ 
 249:Generated_Source\PSoC5/cyfitter_cfg.c **** 		pllLock = 0x03u & ((uint8)((uint8)pllLock << 1) | ((CY_GET_XTND_REG8((void CYFAR *)CYREG_FASTCLK_
 250:Generated_Source\PSoC5/cyfitter_cfg.c **** 		CyDelayCycles(10u * 48u); /* Delay 10us based on 48MHz clock */
 251:Generated_Source\PSoC5/cyfitter_cfg.c **** 	}
 252:Generated_Source\PSoC5/cyfitter_cfg.c **** 	/* If we ran out of time the PLL didn't lock so go to the error function */
 253:Generated_Source\PSoC5/cyfitter_cfg.c **** 	if (timeout == 0u)
 254:Generated_Source\PSoC5/cyfitter_cfg.c **** 	{
 255:Generated_Source\PSoC5/cyfitter_cfg.c **** 		CyClockStartupError(CYCLOCKSTART_PLL_ERROR);
 256:Generated_Source\PSoC5/cyfitter_cfg.c **** 	}
 257:Generated_Source\PSoC5/cyfitter_cfg.c **** 
 258:Generated_Source\PSoC5/cyfitter_cfg.c **** 	/* Configure Bus/Master Clock based on settings from Clock DWR */
ARM GAS  C:\Users\seppi\AppData\Local\Temp\ccD8lMwL.s 			page 6


 259:Generated_Source\PSoC5/cyfitter_cfg.c **** 	CY_SET_XTND_REG16((void CYFAR *)(CYREG_CLKDIST_MSTR0), 0x0100u);
 260:Generated_Source\PSoC5/cyfitter_cfg.c **** 	CY_SET_XTND_REG8((void CYFAR *)(CYREG_CLKDIST_MSTR0), 0x07u);
 261:Generated_Source\PSoC5/cyfitter_cfg.c **** 	CY_SET_XTND_REG8((void CYFAR *)(CYREG_CLKDIST_BCFG0), 0x00u);
 262:Generated_Source\PSoC5/cyfitter_cfg.c **** 	CY_SET_XTND_REG8((void CYFAR *)(CYREG_CLKDIST_BCFG2), 0x48u);
 263:Generated_Source\PSoC5/cyfitter_cfg.c **** 	CY_SET_XTND_REG8((void CYFAR *)(CYREG_CLKDIST_MSTR0), 0x00u);
 264:Generated_Source\PSoC5/cyfitter_cfg.c **** 	CY_SET_XTND_REG8((void CYFAR *)(CYREG_CLKDIST_LD), 0x02u);
 265:Generated_Source\PSoC5/cyfitter_cfg.c **** 
 266:Generated_Source\PSoC5/cyfitter_cfg.c **** 	CY_SET_XTND_REG8((void CYFAR *)(CYREG_PM_ACT_CFG2), ((CY_GET_XTND_REG8((void CYFAR *)CYREG_PM_ACT_
 267:Generated_Source\PSoC5/cyfitter_cfg.c **** }
 268:Generated_Source\PSoC5/cyfitter_cfg.c **** 
 269:Generated_Source\PSoC5/cyfitter_cfg.c **** 
 270:Generated_Source\PSoC5/cyfitter_cfg.c **** /* Analog API Functions */
 271:Generated_Source\PSoC5/cyfitter_cfg.c **** 
 272:Generated_Source\PSoC5/cyfitter_cfg.c **** 
 273:Generated_Source\PSoC5/cyfitter_cfg.c **** /*******************************************************************************
 274:Generated_Source\PSoC5/cyfitter_cfg.c **** * Function Name: AnalogSetDefault
 275:Generated_Source\PSoC5/cyfitter_cfg.c **** ********************************************************************************
 276:Generated_Source\PSoC5/cyfitter_cfg.c **** *
 277:Generated_Source\PSoC5/cyfitter_cfg.c **** * Summary:
 278:Generated_Source\PSoC5/cyfitter_cfg.c **** *  Sets up the analog portions of the chip to default values based on chip
 279:Generated_Source\PSoC5/cyfitter_cfg.c **** *  configuration options from the project.
 280:Generated_Source\PSoC5/cyfitter_cfg.c **** *
 281:Generated_Source\PSoC5/cyfitter_cfg.c **** * Parameters:
 282:Generated_Source\PSoC5/cyfitter_cfg.c **** *  void
 283:Generated_Source\PSoC5/cyfitter_cfg.c **** *
 284:Generated_Source\PSoC5/cyfitter_cfg.c **** * Return:
 285:Generated_Source\PSoC5/cyfitter_cfg.c **** *  void
 286:Generated_Source\PSoC5/cyfitter_cfg.c **** *
 287:Generated_Source\PSoC5/cyfitter_cfg.c **** *******************************************************************************/
 288:Generated_Source\PSoC5/cyfitter_cfg.c **** static void AnalogSetDefault(void);
 289:Generated_Source\PSoC5/cyfitter_cfg.c **** static void AnalogSetDefault(void)
 290:Generated_Source\PSoC5/cyfitter_cfg.c **** {
 291:Generated_Source\PSoC5/cyfitter_cfg.c **** 	uint8 bg_xover_inl_trim = CY_GET_XTND_REG8((void CYFAR *)(CYREG_FLSHID_MFG_CFG_BG_XOVER_INL_TRIM +
 292:Generated_Source\PSoC5/cyfitter_cfg.c **** 	CY_SET_XTND_REG8((void CYFAR *)(CYREG_BG_DFT0), (bg_xover_inl_trim & 0x07u));
 293:Generated_Source\PSoC5/cyfitter_cfg.c **** 	CY_SET_XTND_REG8((void CYFAR *)(CYREG_BG_DFT1), ((bg_xover_inl_trim >> 4) & 0x0Fu));
 294:Generated_Source\PSoC5/cyfitter_cfg.c **** 	CY_SET_XTND_REG8((void CYFAR *)CYREG_PUMP_CR0, 0x44u);
 295:Generated_Source\PSoC5/cyfitter_cfg.c **** }
 296:Generated_Source\PSoC5/cyfitter_cfg.c **** 
 297:Generated_Source\PSoC5/cyfitter_cfg.c **** 
 298:Generated_Source\PSoC5/cyfitter_cfg.c **** /*******************************************************************************
 299:Generated_Source\PSoC5/cyfitter_cfg.c **** * Function Name: SetAnalogRoutingPumps
 300:Generated_Source\PSoC5/cyfitter_cfg.c **** ********************************************************************************
 301:Generated_Source\PSoC5/cyfitter_cfg.c **** *
 302:Generated_Source\PSoC5/cyfitter_cfg.c **** * Summary:
 303:Generated_Source\PSoC5/cyfitter_cfg.c **** * Enables or disables the analog pumps feeding analog routing switches.
 304:Generated_Source\PSoC5/cyfitter_cfg.c **** * Intended to be called at startup, based on the Vdda system configuration;
 305:Generated_Source\PSoC5/cyfitter_cfg.c **** * may be called during operation when the user informs us that the Vdda voltage
 306:Generated_Source\PSoC5/cyfitter_cfg.c **** * crossed the pump threshold.
 307:Generated_Source\PSoC5/cyfitter_cfg.c **** *
 308:Generated_Source\PSoC5/cyfitter_cfg.c **** * Parameters:
 309:Generated_Source\PSoC5/cyfitter_cfg.c **** *  enabled - 1 to enable the pumps, 0 to disable the pumps
 310:Generated_Source\PSoC5/cyfitter_cfg.c **** *
 311:Generated_Source\PSoC5/cyfitter_cfg.c **** * Return:
 312:Generated_Source\PSoC5/cyfitter_cfg.c **** *  void
 313:Generated_Source\PSoC5/cyfitter_cfg.c **** *
 314:Generated_Source\PSoC5/cyfitter_cfg.c **** *******************************************************************************/
 315:Generated_Source\PSoC5/cyfitter_cfg.c **** void SetAnalogRoutingPumps(uint8 enabled)
ARM GAS  C:\Users\seppi\AppData\Local\Temp\ccD8lMwL.s 			page 7


 316:Generated_Source\PSoC5/cyfitter_cfg.c **** {
  28              		.loc 1 316 0
  29              		.cfi_startproc
  30              		@ args = 0, pretend = 0, frame = 0
  31              		@ frame_needed = 0, uses_anonymous_args = 0
  32              		@ link register save eliminated.
  33              	.LVL0:
 317:Generated_Source\PSoC5/cyfitter_cfg.c **** 	uint8 regValue = CY_GET_XTND_REG8((void CYFAR *)CYREG_PUMP_CR0);
  34              		.loc 1 317 0
  35 0000 024A     		ldr	r2, .L2
  36 0002 1378     		ldrb	r3, [r2]	@ zero_extendqisi2
  37 0004 DBB2     		uxtb	r3, r3
  38              	.LVL1:
 318:Generated_Source\PSoC5/cyfitter_cfg.c **** 	if (enabled != 0u)
 319:Generated_Source\PSoC5/cyfitter_cfg.c **** 	{
 320:Generated_Source\PSoC5/cyfitter_cfg.c **** 		regValue |= 0x00u;
 321:Generated_Source\PSoC5/cyfitter_cfg.c **** 	}
 322:Generated_Source\PSoC5/cyfitter_cfg.c **** 	else
 323:Generated_Source\PSoC5/cyfitter_cfg.c **** 	{
 324:Generated_Source\PSoC5/cyfitter_cfg.c **** 		regValue &= (uint8)~0x00u;
 325:Generated_Source\PSoC5/cyfitter_cfg.c **** 	}
 326:Generated_Source\PSoC5/cyfitter_cfg.c **** 	CY_SET_XTND_REG8((void CYFAR *)CYREG_PUMP_CR0, regValue);
  39              		.loc 1 326 0
  40 0006 1370     		strb	r3, [r2]
  41 0008 7047     		bx	lr
  42              	.L3:
  43 000a 00BF     		.align	2
  44              	.L2:
  45 000c 76580040 		.word	1073764470
  46              		.cfi_endproc
  47              	.LFE7:
  48              		.size	SetAnalogRoutingPumps, .-SetAnalogRoutingPumps
  49              		.section	.text.cyfitter_cfg,"ax",%progbits
  50              		.align	1
  51              		.global	cyfitter_cfg
  52              		.thumb
  53              		.thumb_func
  54              		.type	cyfitter_cfg, %function
  55              	cyfitter_cfg:
  56              	.LFB8:
 327:Generated_Source\PSoC5/cyfitter_cfg.c **** }
 328:Generated_Source\PSoC5/cyfitter_cfg.c **** 
 329:Generated_Source\PSoC5/cyfitter_cfg.c **** 
 330:Generated_Source\PSoC5/cyfitter_cfg.c **** 
 331:Generated_Source\PSoC5/cyfitter_cfg.c **** 
 332:Generated_Source\PSoC5/cyfitter_cfg.c **** /*******************************************************************************
 333:Generated_Source\PSoC5/cyfitter_cfg.c **** * Function Name: cyfitter_cfg
 334:Generated_Source\PSoC5/cyfitter_cfg.c **** ********************************************************************************
 335:Generated_Source\PSoC5/cyfitter_cfg.c **** * Summary:
 336:Generated_Source\PSoC5/cyfitter_cfg.c **** *  This function is called by the start-up code for the selected device. It
 337:Generated_Source\PSoC5/cyfitter_cfg.c **** *  performs all of the necessary device configuration based on the design
 338:Generated_Source\PSoC5/cyfitter_cfg.c **** *  settings.  This includes settings from the Design Wide Resources (DWR) such
 339:Generated_Source\PSoC5/cyfitter_cfg.c **** *  as Clocks and Pins as well as any component configuration that is necessary.
 340:Generated_Source\PSoC5/cyfitter_cfg.c **** *
 341:Generated_Source\PSoC5/cyfitter_cfg.c **** * Parameters:
 342:Generated_Source\PSoC5/cyfitter_cfg.c **** *   void
 343:Generated_Source\PSoC5/cyfitter_cfg.c **** *
ARM GAS  C:\Users\seppi\AppData\Local\Temp\ccD8lMwL.s 			page 8


 344:Generated_Source\PSoC5/cyfitter_cfg.c **** * Return:
 345:Generated_Source\PSoC5/cyfitter_cfg.c **** *   void
 346:Generated_Source\PSoC5/cyfitter_cfg.c **** *
 347:Generated_Source\PSoC5/cyfitter_cfg.c **** *******************************************************************************/
 348:Generated_Source\PSoC5/cyfitter_cfg.c **** 
 349:Generated_Source\PSoC5/cyfitter_cfg.c **** void cyfitter_cfg(void)
 350:Generated_Source\PSoC5/cyfitter_cfg.c **** {
  57              		.loc 1 350 0
  58              		.cfi_startproc
  59              		@ args = 0, pretend = 0, frame = 0
  60              		@ frame_needed = 0, uses_anonymous_args = 0
  61 0000 F8B5     		push	{r3, r4, r5, r6, r7, lr}
  62              		.cfi_def_cfa_offset 24
  63              		.cfi_offset 3, -24
  64              		.cfi_offset 4, -20
  65              		.cfi_offset 5, -16
  66              		.cfi_offset 6, -12
  67              		.cfi_offset 7, -8
  68              		.cfi_offset 14, -4
 351:Generated_Source\PSoC5/cyfitter_cfg.c **** #ifdef CYGlobalIntDisable
 352:Generated_Source\PSoC5/cyfitter_cfg.c **** 	/* Disable interrupts by default. Let user enable if/when they want. */
 353:Generated_Source\PSoC5/cyfitter_cfg.c **** 	CYGlobalIntDisable
  69              		.loc 1 353 0
  70              		.syntax unified
  71              	@ 353 "Generated_Source\PSoC5\cyfitter_cfg.c" 1
  72 0002 72B6     		CPSID   i
  73              	@ 0 "" 2
 354:Generated_Source\PSoC5/cyfitter_cfg.c **** #endif
 355:Generated_Source\PSoC5/cyfitter_cfg.c **** 
 356:Generated_Source\PSoC5/cyfitter_cfg.c **** 	/* Enable/Disable Debug functionality based on settings from System DWR */
 357:Generated_Source\PSoC5/cyfitter_cfg.c **** 	CY_SET_XTND_REG8((void CYFAR *)CYREG_MLOGIC_DEBUG, (CY_GET_XTND_REG8((void CYFAR *)CYREG_MLOGIC_DE
  74              		.loc 1 357 0
  75              		.thumb
  76              		.syntax unified
  77 0004 5D4A     		ldr	r2, .L20
  78              	.LBB38:
  79              	.LBB39:
 358:Generated_Source\PSoC5/cyfitter_cfg.c **** 
 359:Generated_Source\PSoC5/cyfitter_cfg.c **** 	{
 360:Generated_Source\PSoC5/cyfitter_cfg.c **** 
 361:Generated_Source\PSoC5/cyfitter_cfg.c **** 		CYPACKED typedef struct {
 362:Generated_Source\PSoC5/cyfitter_cfg.c **** 			void CYFAR *address;
 363:Generated_Source\PSoC5/cyfitter_cfg.c **** 			uint16 size;
 364:Generated_Source\PSoC5/cyfitter_cfg.c **** 		} CYPACKED_ATTR cfg_memset_t;
 365:Generated_Source\PSoC5/cyfitter_cfg.c **** 
 366:Generated_Source\PSoC5/cyfitter_cfg.c **** 		static const cfg_memset_t CYCODE cfg_memset_list[] = {
 367:Generated_Source\PSoC5/cyfitter_cfg.c **** 			/* address, size */
 368:Generated_Source\PSoC5/cyfitter_cfg.c **** 			{(void CYFAR *)(CYREG_PRT0_DR), 16u},
 369:Generated_Source\PSoC5/cyfitter_cfg.c **** 			{(void CYFAR *)(CYREG_PRT3_DR), 48u},
 370:Generated_Source\PSoC5/cyfitter_cfg.c **** 			{(void CYFAR *)(CYREG_PRT12_DR), 16u},
 371:Generated_Source\PSoC5/cyfitter_cfg.c **** 			{(void CYFAR *)(CYDEV_UCFG_B0_P0_U0_BASE), 4096u},
 372:Generated_Source\PSoC5/cyfitter_cfg.c **** 			{(void CYFAR *)(CYDEV_UCFG_B1_P2_U0_BASE), 2048u},
 373:Generated_Source\PSoC5/cyfitter_cfg.c **** 			{(void CYFAR *)(CYDEV_UCFG_DSI0_BASE), 2560u},
 374:Generated_Source\PSoC5/cyfitter_cfg.c **** 			{(void CYFAR *)(CYDEV_UCFG_DSI12_BASE), 512u},
 375:Generated_Source\PSoC5/cyfitter_cfg.c **** 			{(void CYFAR *)(CYREG_BCTL0_MDCLK_EN), 32u},
 376:Generated_Source\PSoC5/cyfitter_cfg.c **** 		};
 377:Generated_Source\PSoC5/cyfitter_cfg.c **** 
ARM GAS  C:\Users\seppi\AppData\Local\Temp\ccD8lMwL.s 			page 9


 378:Generated_Source\PSoC5/cyfitter_cfg.c **** 		uint8 CYDATA i;
 379:Generated_Source\PSoC5/cyfitter_cfg.c **** 
 380:Generated_Source\PSoC5/cyfitter_cfg.c **** 		/* Zero out critical memory blocks before beginning configuration */
 381:Generated_Source\PSoC5/cyfitter_cfg.c **** 		for (i = 0u; i < (sizeof(cfg_memset_list)/sizeof(cfg_memset_list[0])); i++)
 382:Generated_Source\PSoC5/cyfitter_cfg.c **** 		{
 383:Generated_Source\PSoC5/cyfitter_cfg.c **** 			const cfg_memset_t CYCODE * CYDATA ms = &cfg_memset_list[i];
 384:Generated_Source\PSoC5/cyfitter_cfg.c **** 			CYMEMZERO(ms->address, (size_t)(uint32)(ms->size));
  80              		.loc 1 384 0
  81 0006 5E4D     		ldr	r5, .L20+4
  82              	.LBE39:
  83              	.LBE38:
 357:Generated_Source\PSoC5/cyfitter_cfg.c **** 
  84              		.loc 1 357 0
  85 0008 1378     		ldrb	r3, [r2]	@ zero_extendqisi2
  86 000a 0024     		movs	r4, #0
  87 000c 43F00403 		orr	r3, r3, #4
  88 0010 1370     		strb	r3, [r2]
  89              	.LVL2:
  90              	.LBB48:
  91              	.LBB42:
  92              		.loc 1 384 0
  93 0012 0626     		movs	r6, #6
  94              	.LVL3:
  95              	.L5:
  96              		.loc 1 384 0 is_stmt 0 discriminator 3
  97 0014 06FB0453 		mla	r3, r6, r4, r5
  98              	.LBB40:
  99              	.LBB41:
  79:Generated_Source\PSoC5/cyfitter_cfg.c **** }
 100              		.loc 1 79 0 is_stmt 1 discriminator 3
 101 0018 0021     		movs	r1, #0
 102 001a 9A88     		ldrh	r2, [r3, #4]	@ unaligned
 103 001c 1868     		ldr	r0, [r3]	@ unaligned
 104 001e 0134     		adds	r4, r4, #1
 105              	.LVL4:
 106 0020 FFF7FEFF 		bl	memset
 107              	.LVL5:
 108              	.LBE41:
 109              	.LBE40:
 110              	.LBE42:
 381:Generated_Source\PSoC5/cyfitter_cfg.c **** 		{
 111              		.loc 1 381 0 discriminator 3
 112 0024 082C     		cmp	r4, #8
 113 0026 F5D1     		bne	.L5
 114 0028 5648     		ldr	r0, .L20+8
 115              	.LBB43:
 116              	.LBB44:
 193:Generated_Source\PSoC5/cyfitter_cfg.c **** 	{
 117              		.loc 1 193 0
 118 002a 574D     		ldr	r5, .L20+12
 119              	.LBE44:
 120              	.LBE43:
 121 002c 0024     		movs	r4, #0
 122              	.LVL6:
 123              	.L8:
 124              	.LBB47:
 125              	.LBB46:
ARM GAS  C:\Users\seppi\AppData\Local\Temp\ccD8lMwL.s 			page 10


 126              	.LBB45:
 195:Generated_Source\PSoC5/cyfitter_cfg.c **** 		uint8 count = (uint8)baseAddr;
 127              		.loc 1 195 0
 128 002e 50F8041F 		ldr	r1, [r0, #4]!
 129              	.LVL7:
 130 0032 04F11053 		add	r3, r4, #603979776
 131 0036 03F11E02 		add	r2, r3, #30
 197:Generated_Source\PSoC5/cyfitter_cfg.c **** 		while (count != 0u)
 132              		.loc 1 197 0
 133 003a 21F0FF06 		bic	r6, r1, #255
 134              	.LVL8:
 135 003e 1F33     		adds	r3, r3, #31
 136 0040 C9B2     		uxtb	r1, r1
 137 0042 0B44     		add	r3, r3, r1
 138 0044 5200     		lsls	r2, r2, #1
 139 0046 5B00     		lsls	r3, r3, #1
 140              	.LVL9:
 141              	.L6:
 142 0048 0232     		adds	r2, r2, #2
 198:Generated_Source\PSoC5/cyfitter_cfg.c **** 		{
 143              		.loc 1 198 0
 144 004a 9A42     		cmp	r2, r3
 145 004c 06D0     		beq	.L19
 200:Generated_Source\PSoC5/cyfitter_cfg.c **** 			j++;
 146              		.loc 1 200 0
 147 004e 12F8027C 		ldrb	r7, [r2, #-2]	@ zero_extendqisi2
 148 0052 12F801EC 		ldrb	lr, [r2, #-1]	@ zero_extendqisi2
 149 0056 07F806E0 		strb	lr, [r7, r6]
 150 005a F5E7     		b	.L6
 151              	.L19:
 152              	.LBE45:
 193:Generated_Source\PSoC5/cyfitter_cfg.c **** 	{
 153              		.loc 1 193 0
 154 005c A842     		cmp	r0, r5
 155 005e 0C44     		add	r4, r4, r1
 156              	.LVL10:
 157 0060 E5D1     		bne	.L8
 158              	.LVL11:
 159              	.LBE46:
 160              	.LBE47:
 385:Generated_Source\PSoC5/cyfitter_cfg.c **** 		}
 386:Generated_Source\PSoC5/cyfitter_cfg.c **** 
 387:Generated_Source\PSoC5/cyfitter_cfg.c **** 		cfg_write_bytes32(cy_cfg_addr_table, cy_cfg_data_table);
 388:Generated_Source\PSoC5/cyfitter_cfg.c **** 
 389:Generated_Source\PSoC5/cyfitter_cfg.c **** 		/* Enable digital routing */
 390:Generated_Source\PSoC5/cyfitter_cfg.c **** 		CY_SET_XTND_REG8((void CYFAR *)CYREG_BCTL0_BANK_CTL, CY_GET_XTND_REG8((void CYFAR *)CYREG_BCTL0_B
 161              		.loc 1 390 0
 162 0062 4A4A     		ldr	r2, .L20+16
 391:Generated_Source\PSoC5/cyfitter_cfg.c **** 		CY_SET_XTND_REG8((void CYFAR *)CYREG_BCTL1_BANK_CTL, CY_GET_XTND_REG8((void CYFAR *)CYREG_BCTL1_B
 392:Generated_Source\PSoC5/cyfitter_cfg.c **** 
 393:Generated_Source\PSoC5/cyfitter_cfg.c **** 		/* Enable UDB array */
 394:Generated_Source\PSoC5/cyfitter_cfg.c **** 		CY_SET_XTND_REG8((void CYFAR *)CYREG_PM_ACT_CFG0, CY_GET_XTND_REG8((void CYFAR *)CYREG_PM_ACT_CFG
 163              		.loc 1 394 0
 164 0064 4A4C     		ldr	r4, .L20+20
 390:Generated_Source\PSoC5/cyfitter_cfg.c **** 		CY_SET_XTND_REG8((void CYFAR *)CYREG_BCTL1_BANK_CTL, CY_GET_XTND_REG8((void CYFAR *)CYREG_BCTL1_B
 165              		.loc 1 390 0
 166 0066 1378     		ldrb	r3, [r2]	@ zero_extendqisi2
ARM GAS  C:\Users\seppi\AppData\Local\Temp\ccD8lMwL.s 			page 11


 167              	.LBE48:
 168              	.LBB49:
 169              	.LBB50:
  86:Generated_Source\PSoC5/cyfitter_cfg.c **** }
 170              		.loc 1 86 0
 171 0068 4A4D     		ldr	r5, .L20+24
 172              	.LBE50:
 173              	.LBE49:
 174              	.LBB53:
 390:Generated_Source\PSoC5/cyfitter_cfg.c **** 		CY_SET_XTND_REG8((void CYFAR *)CYREG_BCTL1_BANK_CTL, CY_GET_XTND_REG8((void CYFAR *)CYREG_BCTL1_B
 175              		.loc 1 390 0
 176 006a 43F00203 		orr	r3, r3, #2
 177 006e 1370     		strb	r3, [r2]
 391:Generated_Source\PSoC5/cyfitter_cfg.c **** 		CY_SET_XTND_REG8((void CYFAR *)CYREG_BCTL1_BANK_CTL, CY_GET_XTND_REG8((void CYFAR *)CYREG_BCTL1_B
 178              		.loc 1 391 0
 179 0070 137C     		ldrb	r3, [r2, #16]	@ zero_extendqisi2
 180              	.LBE53:
 181              	.LBB54:
 182              	.LBB55:
 249:Generated_Source\PSoC5/cyfitter_cfg.c **** 		CyDelayCycles(10u * 48u); /* Delay 10us based on 48MHz clock */
 183              		.loc 1 249 0
 184 0072 494F     		ldr	r7, .L20+28
 185              	.LBE55:
 186              	.LBE54:
 187              	.LBB61:
 391:Generated_Source\PSoC5/cyfitter_cfg.c **** 
 188              		.loc 1 391 0
 189 0074 43F00203 		orr	r3, r3, #2
 190 0078 1374     		strb	r3, [r2, #16]
 191              		.loc 1 394 0
 192 007a 2378     		ldrb	r3, [r4]	@ zero_extendqisi2
 395:Generated_Source\PSoC5/cyfitter_cfg.c **** 		CY_SET_XTND_REG8((void CYFAR *)CYREG_PM_AVAIL_CR2, CY_GET_XTND_REG8((void CYFAR *)CYREG_PM_AVAIL_
 193              		.loc 1 395 0
 194 007c A2F58632 		sub	r2, r2, #68608
 394:Generated_Source\PSoC5/cyfitter_cfg.c **** 		CY_SET_XTND_REG8((void CYFAR *)CYREG_PM_AVAIL_CR2, CY_GET_XTND_REG8((void CYFAR *)CYREG_PM_AVAIL_
 195              		.loc 1 394 0
 196 0080 43F04003 		orr	r3, r3, #64
 197 0084 2370     		strb	r3, [r4]
 198              		.loc 1 395 0
 199 0086 413A     		subs	r2, r2, #65
 200 0088 1378     		ldrb	r3, [r2]	@ zero_extendqisi2
 201              	.LBE61:
 202              	.LBB62:
 203              	.LBB56:
 246:Generated_Source\PSoC5/cyfitter_cfg.c **** 	for (timeout = 250u / 10u; (timeout > 0u) && (pllLock != 0x03u); timeout--)
 204              		.loc 1 246 0
 205 008a 0026     		movs	r6, #0
 206              	.LBE56:
 207              	.LBE62:
 208              	.LBB63:
 209              		.loc 1 395 0
 210 008c 43F01003 		orr	r3, r3, #16
 211 0090 1370     		strb	r3, [r2]
 212              	.LVL12:
 213              	.LBE63:
 214              	.LBB64:
 215              	.LBB65:
ARM GAS  C:\Users\seppi\AppData\Local\Temp\ccD8lMwL.s 			page 12


  86:Generated_Source\PSoC5/cyfitter_cfg.c **** }
 216              		.loc 1 86 0
 217 0092 424B     		ldr	r3, .L20+32
 218 0094 03CB     		ldmia	r3!, {r0, r1}
 219 0096 C2F8300E 		str	r0, [r2, #3632]	@ unaligned
 220 009a C2F8341E 		str	r1, [r2, #3636]	@ unaligned
 221              	.LVL13:
 222              	.LBE65:
 223              	.LBE64:
 224              	.LBB66:
 225              	.LBB67:
 226 009e 03CB     		ldmia	r3!, {r0, r1}
 227 00a0 C2F8500D 		str	r0, [r2, #3408]	@ unaligned
 228 00a4 C2F8541D 		str	r1, [r2, #3412]	@ unaligned
 229              	.LVL14:
 230              	.LBE67:
 231              	.LBE66:
 232              	.LBB68:
 233              	.LBB51:
 234 00a8 93E80700 		ldmia	r3, {r0, r1, r2}
 235 00ac 03C5     		stmia	r5!, {r0, r1}
 236              	.LBE51:
 237              	.LBE68:
 238              	.LBB69:
 239              	.LBB70:
 240 00ae 3C4B     		ldr	r3, .L20+36
 241              	.LBE70:
 242              	.LBE69:
 243              	.LBB73:
 244              	.LBB52:
 245 00b0 2A80     		strh	r2, [r5]	@ movhi
 246              	.LVL15:
 247              	.LBE52:
 248              	.LBE73:
 249              	.LBB74:
 250              	.LBB71:
 251 00b2 3C4A     		ldr	r2, .L20+40
 252              	.LBE71:
 253              	.LBE74:
 254              	.LBB75:
 255              	.LBB57:
 231:Generated_Source\PSoC5/cyfitter_cfg.c **** 	CY_SET_XTND_REG8((void CYFAR *)(CYREG_CLKDIST_DCFG0_CFG0 + 0x2u), 0x18u);
 256              		.loc 1 231 0
 257 00b4 1925     		movs	r5, #25
 258              	.LBE57:
 259              	.LBE75:
 260              	.LBB76:
 261              	.LBB72:
  86:Generated_Source\PSoC5/cyfitter_cfg.c **** }
 262              		.loc 1 86 0
 263 00b6 07CA     		ldmia	r2, {r0, r1, r2}
 264 00b8 03C3     		stmia	r3!, {r0, r1}
 265 00ba 1A80     		strh	r2, [r3]	@ movhi
 266              	.LVL16:
 267              	.LBE72:
 268              	.LBE76:
 396:Generated_Source\PSoC5/cyfitter_cfg.c **** 	}
ARM GAS  C:\Users\seppi\AppData\Local\Temp\ccD8lMwL.s 			page 13


 397:Generated_Source\PSoC5/cyfitter_cfg.c **** 
 398:Generated_Source\PSoC5/cyfitter_cfg.c **** 
 399:Generated_Source\PSoC5/cyfitter_cfg.c **** 	/* Perform second pass device configuration. These items must be configured in specific order afte
 400:Generated_Source\PSoC5/cyfitter_cfg.c **** 	CYCONFIGCPY((void CYFAR *)(CYREG_PRT15_DM0), (const void CYFAR *)(BS_IOPINS0_8_VAL), 8u);
 401:Generated_Source\PSoC5/cyfitter_cfg.c **** 	CYCONFIGCPY((void CYFAR *)(CYREG_PRT1_DM0), (const void CYFAR *)(BS_IOPINS0_1_VAL), 8u);
 402:Generated_Source\PSoC5/cyfitter_cfg.c **** 	CYCONFIGCPY((void CYFAR *)(CYREG_PRT2_DR), (const void CYFAR *)(BS_IOPINS0_2_VAL), 10u);
 403:Generated_Source\PSoC5/cyfitter_cfg.c **** 	CYCONFIGCPY((void CYFAR *)(CYREG_PRT6_DR), (const void CYFAR *)(BS_IOPINS0_6_VAL), 10u);
 404:Generated_Source\PSoC5/cyfitter_cfg.c **** 	/* Switch Boost to the precision bandgap reference from its internal reference */
 405:Generated_Source\PSoC5/cyfitter_cfg.c **** 	CY_SET_REG8((void CYXDATA *)CYREG_BOOST_CR2, (CY_GET_REG8((void CYXDATA *)CYREG_BOOST_CR2) | 0x08u
 269              		.loc 1 405 0
 270 00bc 3A4A     		ldr	r2, .L20+44
 271              	.LBB77:
 272              	.LBB58:
 239:Generated_Source\PSoC5/cyfitter_cfg.c **** 	CY_SET_XTND_REG8((void CYFAR *)(CYREG_IMO_TR1), (CY_GET_XTND_REG8((void CYFAR *)CYREG_FLSHID_CUST_
 273              		.loc 1 239 0
 274 00be 0321     		movs	r1, #3
 275              	.LBE58:
 276              	.LBE77:
 277              		.loc 1 405 0
 278 00c0 1378     		ldrb	r3, [r2]	@ zero_extendqisi2
 279 00c2 43F00803 		orr	r3, r3, #8
 280 00c6 1370     		strb	r3, [r2]
 406:Generated_Source\PSoC5/cyfitter_cfg.c **** 
 407:Generated_Source\PSoC5/cyfitter_cfg.c **** 	/* Set Flash Cycles based on max possible frequency in case a glitch occurs during ClockSetup(). *
 408:Generated_Source\PSoC5/cyfitter_cfg.c **** 	CY_SET_XTND_REG8((void CYFAR *)(CYREG_CACHE_CC_CTL), (((CYDEV_INSTRUCT_CACHE_ENABLED) != 0) ? 0x61
 281              		.loc 1 408 0
 282 00c8 384B     		ldr	r3, .L20+48
 283 00ca 6122     		movs	r2, #97
 284 00cc 1A70     		strb	r2, [r3]
 285              	.LBB78:
 286              	.LBB59:
 231:Generated_Source\PSoC5/cyfitter_cfg.c **** 	CY_SET_XTND_REG8((void CYFAR *)(CYREG_CLKDIST_DCFG0_CFG0 + 0x2u), 0x18u);
 287              		.loc 1 231 0
 288 00ce A3F5F063 		sub	r3, r3, #1920
 232:Generated_Source\PSoC5/cyfitter_cfg.c **** 
 289              		.loc 1 232 0
 290 00d2 1822     		movs	r2, #24
 231:Generated_Source\PSoC5/cyfitter_cfg.c **** 	CY_SET_XTND_REG8((void CYFAR *)(CYREG_CLKDIST_DCFG0_CFG0 + 0x2u), 0x18u);
 291              		.loc 1 231 0
 292 00d4 1D80     		strh	r5, [r3]	@ movhi
 232:Generated_Source\PSoC5/cyfitter_cfg.c **** 
 293              		.loc 1 232 0
 294 00d6 9A70     		strb	r2, [r3, #2]
 235:Generated_Source\PSoC5/cyfitter_cfg.c **** 	CY_SET_XTND_REG8((void CYFAR *)(CYREG_CLKDIST_CR), 0x08u);
 295              		.loc 1 235 0
 296 00d8 0222     		movs	r2, #2
 297 00da 83F88022 		strb	r2, [r3, #640]
 236:Generated_Source\PSoC5/cyfitter_cfg.c **** 
 298              		.loc 1 236 0
 299 00de 0822     		movs	r2, #8
 300 00e0 4FF04023 		mov	r3, #1073758208
 301 00e4 1A70     		strb	r2, [r3]
 239:Generated_Source\PSoC5/cyfitter_cfg.c **** 	CY_SET_XTND_REG8((void CYFAR *)(CYREG_IMO_TR1), (CY_GET_XTND_REG8((void CYFAR *)CYREG_FLSHID_CUST_
 302              		.loc 1 239 0
 303 00e6 83F80012 		strb	r1, [r3, #512]
 240:Generated_Source\PSoC5/cyfitter_cfg.c **** 
 304              		.loc 1 240 0
ARM GAS  C:\Users\seppi\AppData\Local\Temp\ccD8lMwL.s 			page 14


 305 00ea 314B     		ldr	r3, .L20+52
 306 00ec 3149     		ldr	r1, .L20+56
 307 00ee 1B78     		ldrb	r3, [r3]	@ zero_extendqisi2
 308 00f0 DBB2     		uxtb	r3, r3
 309 00f2 0B70     		strb	r3, [r1]
 243:Generated_Source\PSoC5/cyfitter_cfg.c **** 	CY_SET_XTND_REG16((void CYFAR *)(CYREG_FASTCLK_PLL_CFG0), 0x1251u);
 310              		.loc 1 243 0
 311 00f4 304B     		ldr	r3, .L20+60
 312 00f6 1A80     		strh	r2, [r3]	@ movhi
 244:Generated_Source\PSoC5/cyfitter_cfg.c **** 	/* Wait up to 250us for the PLL to lock */
 313              		.loc 1 244 0
 314 00f8 41F25122 		movw	r2, #4689
 315 00fc 23F8022C 		strh	r2, [r3, #-2]	@ movhi
 316              	.LVL17:
 317              	.L10:
 249:Generated_Source\PSoC5/cyfitter_cfg.c **** 		CyDelayCycles(10u * 48u); /* Delay 10us based on 48MHz clock */
 318              		.loc 1 249 0
 319 0100 3B78     		ldrb	r3, [r7]	@ zero_extendqisi2
 250:Generated_Source\PSoC5/cyfitter_cfg.c **** 	}
 320              		.loc 1 250 0
 321 0102 4FF4F070 		mov	r0, #480
 249:Generated_Source\PSoC5/cyfitter_cfg.c **** 		CyDelayCycles(10u * 48u); /* Delay 10us based on 48MHz clock */
 322              		.loc 1 249 0
 323 0106 03F00103 		and	r3, r3, #1
 324 010a 43EA4606 		orr	r6, r3, r6, lsl #1
 325              	.LVL18:
 250:Generated_Source\PSoC5/cyfitter_cfg.c **** 	}
 326              		.loc 1 250 0
 327 010e FFF7FEFF 		bl	CyDelayCycles
 328              	.LVL19:
 247:Generated_Source\PSoC5/cyfitter_cfg.c **** 	{ 
 329              		.loc 1 247 0
 330 0112 013D     		subs	r5, r5, #1
 331              	.LVL20:
 249:Generated_Source\PSoC5/cyfitter_cfg.c **** 		CyDelayCycles(10u * 48u); /* Delay 10us based on 48MHz clock */
 332              		.loc 1 249 0
 333 0114 06F00306 		and	r6, r6, #3
 334              	.LVL21:
 247:Generated_Source\PSoC5/cyfitter_cfg.c **** 	{ 
 335              		.loc 1 247 0
 336 0118 2FD0     		beq	.L9
 337              	.LVL22:
 338 011a 032E     		cmp	r6, #3
 339 011c F0D1     		bne	.L10
 259:Generated_Source\PSoC5/cyfitter_cfg.c **** 	CY_SET_XTND_REG8((void CYFAR *)(CYREG_CLKDIST_MSTR0), 0x07u);
 340              		.loc 1 259 0
 341 011e 274B     		ldr	r3, .L20+64
 342 0120 4FF48072 		mov	r2, #256
 343 0124 1A80     		strh	r2, [r3]	@ movhi
 261:Generated_Source\PSoC5/cyfitter_cfg.c **** 	CY_SET_XTND_REG8((void CYFAR *)(CYREG_CLKDIST_BCFG2), 0x48u);
 344              		.loc 1 261 0
 345 0126 2649     		ldr	r1, .L20+68
 260:Generated_Source\PSoC5/cyfitter_cfg.c **** 	CY_SET_XTND_REG8((void CYFAR *)(CYREG_CLKDIST_BCFG0), 0x00u);
 346              		.loc 1 260 0
 347 0128 0722     		movs	r2, #7
 348 012a 1A70     		strb	r2, [r3]
 262:Generated_Source\PSoC5/cyfitter_cfg.c **** 	CY_SET_XTND_REG8((void CYFAR *)(CYREG_CLKDIST_MSTR0), 0x00u);
ARM GAS  C:\Users\seppi\AppData\Local\Temp\ccD8lMwL.s 			page 15


 349              		.loc 1 262 0
 350 012c 4820     		movs	r0, #72
 261:Generated_Source\PSoC5/cyfitter_cfg.c **** 	CY_SET_XTND_REG8((void CYFAR *)(CYREG_CLKDIST_BCFG2), 0x48u);
 351              		.loc 1 261 0
 352 012e 0022     		movs	r2, #0
 353 0130 0A70     		strb	r2, [r1]
 262:Generated_Source\PSoC5/cyfitter_cfg.c **** 	CY_SET_XTND_REG8((void CYFAR *)(CYREG_CLKDIST_MSTR0), 0x00u);
 354              		.loc 1 262 0
 355 0132 8870     		strb	r0, [r1, #2]
 263:Generated_Source\PSoC5/cyfitter_cfg.c **** 	CY_SET_XTND_REG8((void CYFAR *)(CYREG_CLKDIST_LD), 0x02u);
 356              		.loc 1 263 0
 357 0134 1A70     		strb	r2, [r3]
 264:Generated_Source\PSoC5/cyfitter_cfg.c **** 
 358              		.loc 1 264 0
 359 0136 0222     		movs	r2, #2
 360 0138 03F8032C 		strb	r2, [r3, #-3]
 266:Generated_Source\PSoC5/cyfitter_cfg.c **** }
 361              		.loc 1 266 0
 362 013c 214A     		ldr	r2, .L20+72
 363              	.LBE59:
 364              	.LBE78:
 365              	.LBB79:
 366              	.LBB80:
  86:Generated_Source\PSoC5/cyfitter_cfg.c **** }
 367              		.loc 1 86 0
 368 013e 224D     		ldr	r5, .L20+76
 369              	.LVL23:
 370              	.LBE80:
 371              	.LBE79:
 372              	.LBB82:
 373              	.LBB60:
 266:Generated_Source\PSoC5/cyfitter_cfg.c **** }
 374              		.loc 1 266 0
 375 0140 1378     		ldrb	r3, [r2]	@ zero_extendqisi2
 376 0142 43F00103 		orr	r3, r3, #1
 377 0146 1370     		strb	r3, [r2]
 378              	.LVL24:
 379              	.LBE60:
 380              	.LBE82:
 409:Generated_Source\PSoC5/cyfitter_cfg.c **** 	/* Setup clocks based on selections from Clock DWR */
 410:Generated_Source\PSoC5/cyfitter_cfg.c **** 	ClockSetup();
 411:Generated_Source\PSoC5/cyfitter_cfg.c **** 	/* Set Flash Cycles based on newly configured 24.00MHz Bus Clock. */
 412:Generated_Source\PSoC5/cyfitter_cfg.c **** 	CY_SET_XTND_REG8((void CYFAR *)(CYREG_CACHE_CC_CTL), (((CYDEV_INSTRUCT_CACHE_ENABLED) != 0) ? 0x81
 381              		.loc 1 412 0
 382 0148 184B     		ldr	r3, .L20+48
 383 014a 8122     		movs	r2, #129
 384 014c 1A70     		strb	r2, [r3]
 413:Generated_Source\PSoC5/cyfitter_cfg.c **** 	CY_SET_XTND_REG8((void CYFAR *)(CYREG_PANTHER_WAITPIPE), 0x01u);
 385              		.loc 1 413 0
 386 014e 03F5F723 		add	r3, r3, #505856
 387 0152 0122     		movs	r2, #1
 388 0154 0433     		adds	r3, r3, #4
 389 0156 1A70     		strb	r2, [r3]
 390              	.LBB83:
 391              	.LBB84:
 291:Generated_Source\PSoC5/cyfitter_cfg.c **** 	CY_SET_XTND_REG8((void CYFAR *)(CYREG_BG_DFT0), (bg_xover_inl_trim & 0x07u));
 392              		.loc 1 291 0
ARM GAS  C:\Users\seppi\AppData\Local\Temp\ccD8lMwL.s 			page 16


 393 0158 1C4B     		ldr	r3, .L20+80
 292:Generated_Source\PSoC5/cyfitter_cfg.c **** 	CY_SET_XTND_REG8((void CYFAR *)(CYREG_BG_DFT1), ((bg_xover_inl_trim >> 4) & 0x0Fu));
 394              		.loc 1 292 0
 395 015a 1D4A     		ldr	r2, .L20+84
 291:Generated_Source\PSoC5/cyfitter_cfg.c **** 	CY_SET_XTND_REG8((void CYFAR *)(CYREG_BG_DFT0), (bg_xover_inl_trim & 0x07u));
 396              		.loc 1 291 0
 397 015c 1B78     		ldrb	r3, [r3]	@ zero_extendqisi2
 398 015e DBB2     		uxtb	r3, r3
 399              	.LVL25:
 292:Generated_Source\PSoC5/cyfitter_cfg.c **** 	CY_SET_XTND_REG8((void CYFAR *)(CYREG_BG_DFT1), ((bg_xover_inl_trim >> 4) & 0x0Fu));
 400              		.loc 1 292 0
 401 0160 03F00701 		and	r1, r3, #7
 293:Generated_Source\PSoC5/cyfitter_cfg.c **** 	CY_SET_XTND_REG8((void CYFAR *)CYREG_PUMP_CR0, 0x44u);
 402              		.loc 1 293 0
 403 0164 1B09     		lsrs	r3, r3, #4
 404              	.LVL26:
 292:Generated_Source\PSoC5/cyfitter_cfg.c **** 	CY_SET_XTND_REG8((void CYFAR *)(CYREG_BG_DFT1), ((bg_xover_inl_trim >> 4) & 0x0Fu));
 405              		.loc 1 292 0
 406 0166 1170     		strb	r1, [r2]
 293:Generated_Source\PSoC5/cyfitter_cfg.c **** 	CY_SET_XTND_REG8((void CYFAR *)CYREG_PUMP_CR0, 0x44u);
 407              		.loc 1 293 0
 408 0168 5370     		strb	r3, [r2, #1]
 294:Generated_Source\PSoC5/cyfitter_cfg.c **** }
 409              		.loc 1 294 0
 410 016a 1A4B     		ldr	r3, .L20+88
 411 016c 4422     		movs	r2, #68
 412 016e 1A70     		strb	r2, [r3]
 413              	.LVL27:
 414              	.LBE84:
 415              	.LBE83:
 416              	.LBB85:
 417              	.LBB81:
  86:Generated_Source\PSoC5/cyfitter_cfg.c **** }
 418              		.loc 1 86 0
 419 0170 94E80F00 		ldmia	r4, {r0, r1, r2, r3}
 420 0174 07C5     		stmia	r5!, {r0, r1, r2}
 421 0176 2B80     		strh	r3, [r5]	@ movhi
 422              	.LVL28:
 423 0178 F8BD     		pop	{r3, r4, r5, r6, r7, pc}
 424              	.LVL29:
 425              	.L9:
 426 017a FEE7     		b	.L9
 427              	.L21:
 428              		.align	2
 429              	.L20:
 430 017c E8460040 		.word	1073759976
 431 0180 00000000 		.word	.LANCHOR0
 432 0184 FCFFFF47 		.word	1207959548
 433 0188 38000048 		.word	1207959608
 434 018c 03500140 		.word	1073827843
 435 0190 A0430040 		.word	1073759136
 436 0194 20510040 		.word	1073762592
 437 0198 25420040 		.word	1073758757
 438 019c E4020048 		.word	1207960292
 439 01a0 60510040 		.word	1073762656
 440 01a4 00030048 		.word	1207960320
 441 01a8 22430040 		.word	1073759010
ARM GAS  C:\Users\seppi\AppData\Local\Temp\ccD8lMwL.s 			page 17


 442 01ac 00480040 		.word	1073760256
 443 01b0 08010049 		.word	1224737032
 444 01b4 A1460040 		.word	1073759905
 445 01b8 22420040 		.word	1073758754
 446 01bc 04400040 		.word	1073758212
 447 01c0 06400040 		.word	1073758214
 448 01c4 A2430040 		.word	1073759138
 449 01c8 B0430040 		.word	1073759152
 450 01cc CF010049 		.word	1224737231
 451 01d0 6E580040 		.word	1073764462
 452 01d4 76580040 		.word	1073764470
 453              	.LBE81:
 454              	.LBE85:
 455              		.cfi_endproc
 456              	.LFE8:
 457              		.size	cyfitter_cfg, .-cyfitter_cfg
 458              		.section	.rodata
 459              		.set	.LANCHOR0,. + 0
 460              		.type	cfg_memset_list.5013, %object
 461              		.size	cfg_memset_list.5013, 48
 462              	cfg_memset_list.5013:
 463 0000 00510040 		.4byte	1073762560
 464 0004 1000     		.2byte	16
 465 0006 30510040 		.4byte	1073762608
 466 000a 3000     		.2byte	48
 467 000c C0510040 		.4byte	1073762752
 468 0010 1000     		.2byte	16
 469 0012 00000140 		.4byte	1073807360
 470 0016 0010     		.2byte	4096
 471 0018 00140140 		.4byte	1073812480
 472 001c 0008     		.2byte	2048
 473 001e 00400140 		.4byte	1073823744
 474 0022 000A     		.2byte	2560
 475 0024 004C0140 		.4byte	1073826816
 476 0028 0002     		.2byte	512
 477 002a 00500140 		.4byte	1073827840
 478 002e 2000     		.2byte	32
 479              		.text
 480              	.Letext0:
 481              		.file 2 "c:\\program files (x86)\\cypress\\psoc creator\\4.4\\psoc creator\\import\\gnu\\arm\\5.4.
 482              		.file 3 "Generated_Source\\PSoC5\\cytypes.h"
 483              		.file 4 "Generated_Source\\PSoC5\\CyLib.h"