ARM GAS  C:\Users\seppi\AppData\Local\Temp\cc81mRap.s 			page 1


   1              		.syntax unified
   2              		.cpu cortex-m3
   3              		.fpu softvfp
   4              		.eabi_attribute 20, 1
   5              		.eabi_attribute 21, 1
   6              		.eabi_attribute 23, 3
   7              		.eabi_attribute 24, 1
   8              		.eabi_attribute 25, 1
   9              		.eabi_attribute 26, 1
  10              		.eabi_attribute 30, 1
  11              		.eabi_attribute 34, 1
  12              		.eabi_attribute 18, 4
  13              		.thumb
  14              		.syntax unified
  15              		.file	"main.c"
  16              		.text
  17              	.Ltext0:
  18              		.cfi_sections	.debug_frame
  19              		.section	.text.main,"ax",%progbits
  20              		.align	2
  21              		.global	main
  22              		.thumb
  23              		.thumb_func
  24              		.type	main, %function
  25              	main:
  26              	.LFB64:
  27              		.file 1 "main.c"
   1:main.c        **** #include "project.h"
   2:main.c        **** #include <stdio.h>      // sprintf operations for buffer
   3:main.c        **** #include <stdbool.h>    // usage of bool values
   4:main.c        **** 
   5:main.c        **** #define _PROJECT_NAME   "MPS21_Prakt_2" // Project name
   6:main.c        **** #define _VERSION_NR     "ver. 1.2"      // Version number. Please update
   7:main.c        **** #define _PROCESSOR      "PSoC 5LP"      // Processor type
   8:main.c        **** #define _DEVICE_NAME    "FreeSoC2"      // Board or device type
   9:main.c        **** #define _AUTHOR         "Sebastian Zill"// Author
  10:main.c        **** #define _MENU           "Instructions: \n\r Press x to quit! \n\r Press g to toggle green light \n\
  11:main.c        **** 
  12:main.c        **** // build string for display
  13:main.c        **** #define _VERSTR       (_PROJECT_NAME" ("_VERSION_NR") - "_DEVICE_NAME", "_PROCESSOR", \n\r"\
  14:main.c        **** _AUTHOR", "__DATE__" "__TIME__)
  15:main.c        **** 
  16:main.c        **** // Macros for I/O
  17:main.c        **** #define LED_ON  (0u)                    //!< LED on (active low)
  18:main.c        **** #define LED_OFF (1u)                    //!< LED off (active low)
  19:main.c        **** 
  20:main.c        **** // string buffer for output
  21:main.c        **** #define BUFFER_SIZE 128                 //!< string output buffer size for sprintf
  22:main.c        **** static char buffer[BUFFER_SIZE];        //!< buffer (global) for sprintf
  23:main.c        **** 
  24:main.c        **** 
  25:main.c        **** int main(void)
  26:main.c        **** {
  28              		.loc 1 26 0
  29              		.cfi_startproc
  30              		@ args = 0, pretend = 0, frame = 8
  31              		@ frame_needed = 0, uses_anonymous_args = 0
ARM GAS  C:\Users\seppi\AppData\Local\Temp\cc81mRap.s 			page 2


  32 0000 10B5     		push	{r4, lr}
  33              		.cfi_def_cfa_offset 8
  34              		.cfi_offset 4, -8
  35              		.cfi_offset 14, -4
  36 0002 82B0     		sub	sp, sp, #8
  37              		.cfi_def_cfa_offset 16
  27:main.c        ****     // initialize
  28:main.c        ****     UART_Start();                       // start UART
  38              		.loc 1 28 0
  39 0004 FFF7FEFF 		bl	UART_Start
  40              	.LVL0:
  29:main.c        ****     CyGlobalIntEnable;                  // enable global interrupts
  41              		.loc 1 29 0
  42              		.syntax unified
  43              	@ 29 "main.c" 1
  44 0008 62B6     		CPSIE   i
  45              	@ 0 "" 2
  30:main.c        **** 
  31:main.c        ****     // welcome and info text
  32:main.c        ****     sprintf( buffer, "\n\rWelcome! %s\n\r %s", _VERSTR, _MENU);   // format butter
  46              		.loc 1 32 0
  47              		.thumb
  48              		.syntax unified
  49 000a 434C     		ldr	r4, .L22
  50 000c 434B     		ldr	r3, .L22+4
  51 000e 444A     		ldr	r2, .L22+8
  52 0010 4449     		ldr	r1, .L22+12
  53 0012 2046     		mov	r0, r4
  54 0014 FFF7FEFF 		bl	sprintf
  55              	.LVL1:
  33:main.c        ****     UART_PutString( buffer );                                     // print buffer to UART
  56              		.loc 1 33 0
  57 0018 2046     		mov	r0, r4
  58 001a FFF7FEFF 		bl	UART_PutString
  59              	.LVL2:
  60              	.L19:
  61              	.LBB2:
  34:main.c        ****     
  35:main.c        ****     // declarations
  36:main.c        ****     uint8_t chr = 0;                    // chars from UART
  37:main.c        **** 
  38:main.c        **** 
  39:main.c        ****     /* +++ application loop - iterated permanently +++ */
  40:main.c        ****     for(;;)
  41:main.c        ****     {
  42:main.c        ****         /* +++ get uart char +++ */
  43:main.c        ****         chr = UART_GetChar();           //  = 0: while no input
  62              		.loc 1 43 0
  63 001e FFF7FEFF 		bl	UART_GetChar
  64              	.LVL3:
  44:main.c        ****                                         // != 0: got input
  45:main.c        **** 
  46:main.c        ****         // +++ Evaluate chr +++ 
  47:main.c        ****         if ( chr != 0 )                 // gotten chr input
  65              		.loc 1 47 0
  66 0022 0246     		mov	r2, r0
  67 0024 0028     		cmp	r0, #0
ARM GAS  C:\Users\seppi\AppData\Local\Temp\cc81mRap.s 			page 3


  68 0026 44D0     		beq	.L2
  48:main.c        ****         {
  49:main.c        ****             switch (chr)
  69              		.loc 1 49 0
  70 0028 A0F16703 		sub	r3, r0, #103
  71 002c 122B     		cmp	r3, #18
  72 002e 38D8     		bhi	.L3
  73 0030 DFE803F0 		tbb	[pc, r3]
  74              	.L5:
  75 0034 0A       		.byte	(.L4-.L5)/2
  76 0035 37       		.byte	(.L3-.L5)/2
  77 0036 37       		.byte	(.L3-.L5)/2
  78 0037 37       		.byte	(.L3-.L5)/2
  79 0038 37       		.byte	(.L3-.L5)/2
  80 0039 37       		.byte	(.L3-.L5)/2
  81 003a 37       		.byte	(.L3-.L5)/2
  82 003b 37       		.byte	(.L3-.L5)/2
  83 003c 37       		.byte	(.L3-.L5)/2
  84 003d 37       		.byte	(.L3-.L5)/2
  85 003e 37       		.byte	(.L3-.L5)/2
  86 003f 28       		.byte	(.L6-.L5)/2
  87 0040 37       		.byte	(.L3-.L5)/2
  88 0041 37       		.byte	(.L3-.L5)/2
  89 0042 37       		.byte	(.L3-.L5)/2
  90 0043 37       		.byte	(.L3-.L5)/2
  91 0044 37       		.byte	(.L3-.L5)/2
  92 0045 6B       		.byte	(.L7-.L5)/2
  93 0046 19       		.byte	(.L8-.L5)/2
  94 0047 00       		.p2align 1
  95              	.L4:
  50:main.c        ****             {
  51:main.c        ****                 case 'x':
  52:main.c        ****                     UART_PutString( "... Bye! \n\r" );
  53:main.c        ****                     return 0;
  54:main.c        ****                 
  55:main.c        ****                 case 'g':
  56:main.c        ****                     UART_PutString( "Green light toggled! \n\r" );
  96              		.loc 1 56 0
  97 0048 3748     		ldr	r0, .L22+16
  98              	.LVL4:
  99 004a FFF7FEFF 		bl	UART_PutString
 100              	.LVL5:
  57:main.c        ****                     if ( Pin_N_G_Read() == LED_OFF )
 101              		.loc 1 57 0
 102 004e FFF7FEFF 		bl	Pin_N_G_Read
 103              	.LVL6:
 104 0052 0128     		cmp	r0, #1
 105 0054 03D1     		bne	.L9
  58:main.c        ****                         Pin_N_G_Write( LED_ON );
 106              		.loc 1 58 0
 107 0056 0020     		movs	r0, #0
 108 0058 FFF7FEFF 		bl	Pin_N_G_Write
 109              	.LVL7:
 110 005c 29E0     		b	.L2
 111              	.L9:
  59:main.c        ****                     else
  60:main.c        ****                         Pin_N_G_Write( LED_OFF );
ARM GAS  C:\Users\seppi\AppData\Local\Temp\cc81mRap.s 			page 4


 112              		.loc 1 60 0
 113 005e 0120     		movs	r0, #1
 114 0060 FFF7FEFF 		bl	Pin_N_G_Write
 115              	.LVL8:
 116 0064 25E0     		b	.L2
 117              	.LVL9:
 118              	.L8:
  61:main.c        ****                     break;
  62:main.c        **** 
  63:main.c        ****                 case 'y':
  64:main.c        ****                     UART_PutString( "Yellow light toggled! \n\r" );
 119              		.loc 1 64 0
 120 0066 3148     		ldr	r0, .L22+20
 121              	.LVL10:
 122 0068 FFF7FEFF 		bl	UART_PutString
 123              	.LVL11:
  65:main.c        ****                     if ( Pin_N_Y_Read() == LED_OFF )
 124              		.loc 1 65 0
 125 006c FFF7FEFF 		bl	Pin_N_Y_Read
 126              	.LVL12:
 127 0070 0128     		cmp	r0, #1
 128 0072 03D1     		bne	.L10
  66:main.c        ****                         Pin_N_Y_Write( LED_ON );
 129              		.loc 1 66 0
 130 0074 0020     		movs	r0, #0
 131 0076 FFF7FEFF 		bl	Pin_N_Y_Write
 132              	.LVL13:
 133 007a 1AE0     		b	.L2
 134              	.L10:
  67:main.c        ****                     else
  68:main.c        ****                         Pin_N_Y_Write( LED_OFF );
 135              		.loc 1 68 0
 136 007c 0120     		movs	r0, #1
 137 007e FFF7FEFF 		bl	Pin_N_Y_Write
 138              	.LVL14:
 139 0082 16E0     		b	.L2
 140              	.LVL15:
 141              	.L6:
  69:main.c        ****                     break;
  70:main.c        **** 
  71:main.c        ****                 case 'r':
  72:main.c        ****                     UART_PutString( "Red light toggled! \n\r" );
 142              		.loc 1 72 0
 143 0084 2A48     		ldr	r0, .L22+24
 144              	.LVL16:
 145 0086 FFF7FEFF 		bl	UART_PutString
 146              	.LVL17:
  73:main.c        ****                     if ( Pin_N_R_Read() == LED_OFF )
 147              		.loc 1 73 0
 148 008a FFF7FEFF 		bl	Pin_N_R_Read
 149              	.LVL18:
 150 008e 0128     		cmp	r0, #1
 151 0090 03D1     		bne	.L11
  74:main.c        ****                         Pin_N_R_Write( LED_ON );
 152              		.loc 1 74 0
 153 0092 0020     		movs	r0, #0
 154 0094 FFF7FEFF 		bl	Pin_N_R_Write
ARM GAS  C:\Users\seppi\AppData\Local\Temp\cc81mRap.s 			page 5


 155              	.LVL19:
 156 0098 0BE0     		b	.L2
 157              	.L11:
  75:main.c        ****                     else
  76:main.c        ****                         Pin_N_R_Write( LED_OFF );
 158              		.loc 1 76 0
 159 009a 0120     		movs	r0, #1
 160 009c FFF7FEFF 		bl	Pin_N_R_Write
 161              	.LVL20:
 162 00a0 07E0     		b	.L2
 163              	.LVL21:
 164              	.L3:
  77:main.c        ****                     break;
  78:main.c        ****                 
  79:main.c        ****                 default:
  80:main.c        ****                     sprintf( buffer, "erwarte ein <x>, <g>, <y> oder <r>, aber <%c> wurde eingegebe
 165              		.loc 1 80 0
 166 00a2 1D4C     		ldr	r4, .L22
 167 00a4 2349     		ldr	r1, .L22+28
 168 00a6 2046     		mov	r0, r4
 169              	.LVL22:
 170 00a8 FFF7FEFF 		bl	sprintf
 171              	.LVL23:
  81:main.c        ****                     UART_PutString( buffer );
 172              		.loc 1 81 0
 173 00ac 2046     		mov	r0, r4
 174 00ae FFF7FEFF 		bl	UART_PutString
 175              	.LVL24:
 176              	.L2:
  82:main.c        ****                     break;
  83:main.c        ****             }
  84:main.c        ****             chr = 0;                    // reset chr for ISR loop
  85:main.c        ****         }
  86:main.c        **** 
  87:main.c        **** 
  88:main.c        ****         // TASK 5
  89:main.c        ****         // +++ evaluate button CWEW +++ 
  90:main.c        ****         bool pressed = false;
  91:main.c        ****         if ( Pin_CWEW_Read() == 0 )     // if button pressed
 177              		.loc 1 91 0
 178 00b2 FFF7FEFF 		bl	Pin_CWEW_Read
 179              	.LVL25:
 180 00b6 58B9     		cbnz	r0, .L12
  92:main.c        ****         {
  93:main.c        ****             if(!pressed)                // and not pressed before (prellen)
  94:main.c        ****             {
  95:main.c        ****                 // toggle led accordingly
  96:main.c        ****                 if ( Pin_E_CW_Read() == LED_OFF )
 181              		.loc 1 96 0
 182 00b8 FFF7FEFF 		bl	Pin_E_CW_Read
 183              	.LVL26:
 184 00bc 0128     		cmp	r0, #1
 185 00be 03D1     		bne	.L13
  97:main.c        ****                     Pin_E_CW_Write( LED_ON );
 186              		.loc 1 97 0
 187 00c0 0020     		movs	r0, #0
 188 00c2 FFF7FEFF 		bl	Pin_E_CW_Write
ARM GAS  C:\Users\seppi\AppData\Local\Temp\cc81mRap.s 			page 6


 189              	.LVL27:
 190 00c6 05E0     		b	.L14
 191              	.L13:
  98:main.c        ****                 else
  99:main.c        ****                     Pin_E_CW_Write( LED_OFF );
 192              		.loc 1 99 0
 193 00c8 0120     		movs	r0, #1
 194 00ca FFF7FEFF 		bl	Pin_E_CW_Write
 195              	.LVL28:
 196 00ce 01E0     		b	.L14
 197              	.L12:
 100:main.c        ****                 pressed = true;         // set pressed true to prevent double activating
 101:main.c        ****             }
 102:main.c        ****         }
 103:main.c        ****         else if( Pin_CWEW_Read() != 0 ) // if button released
 198              		.loc 1 103 0
 199 00d0 FFF7FEFF 		bl	Pin_CWEW_Read
 200              	.LVL29:
 201              	.L14:
 104:main.c        ****         {                               // and pressed still true,
 105:main.c        ****             if(pressed)
 106:main.c        ****                 pressed = false;        // reset to false
 107:main.c        ****         }
 108:main.c        **** 
 109:main.c        **** 
 110:main.c        ****         // TASK 6
 111:main.c        ****         // +++ LED blinken lassen, warten mit Schleife +++
 112:main.c        ****         volatile uint32_t loop;          // works with DEBUG, not with RELEASE
 113:main.c        ****         // why???
 114:main.c        ****         // loop not used initially - compiler "optimizing" it away
 115:main.c        ****         // what does 'volatile' do?
 116:main.c        ****         // volatile tells the compiler not to optimize anything that has to do with the volatile va
 117:main.c        ****         Pin_N_R_Write( LED_ON );                    // turn on
 202              		.loc 1 117 0
 203 00d4 0020     		movs	r0, #0
 204 00d6 FFF7FEFF 		bl	Pin_N_R_Write
 205              	.LVL30:
 118:main.c        ****         for ( loop = 0; loop < 1000000; loop++ );   // wait with loop
 206              		.loc 1 118 0
 207 00da 0023     		movs	r3, #0
 208 00dc 0193     		str	r3, [sp, #4]
 209 00de 02E0     		b	.L15
 210              	.L16:
 211              		.loc 1 118 0 is_stmt 0 discriminator 3
 212 00e0 019B     		ldr	r3, [sp, #4]
 213 00e2 0133     		adds	r3, r3, #1
 214 00e4 0193     		str	r3, [sp, #4]
 215              	.L15:
 216              		.loc 1 118 0 discriminator 1
 217 00e6 019A     		ldr	r2, [sp, #4]
 218 00e8 134B     		ldr	r3, .L22+32
 219 00ea 9A42     		cmp	r2, r3
 220 00ec F8D9     		bls	.L16
 119:main.c        ****         Pin_N_R_Write( LED_OFF );                   // turn off
 221              		.loc 1 119 0 is_stmt 1
 222 00ee 0120     		movs	r0, #1
 223 00f0 FFF7FEFF 		bl	Pin_N_R_Write
ARM GAS  C:\Users\seppi\AppData\Local\Temp\cc81mRap.s 			page 7


 224              	.LVL31:
 120:main.c        ****         for ( loop = 0; loop < 1000000; loop++ );   // wait with loop
 225              		.loc 1 120 0
 226 00f4 0023     		movs	r3, #0
 227 00f6 0193     		str	r3, [sp, #4]
 228 00f8 02E0     		b	.L17
 229              	.L18:
 230              		.loc 1 120 0 is_stmt 0 discriminator 3
 231 00fa 019B     		ldr	r3, [sp, #4]
 232 00fc 0133     		adds	r3, r3, #1
 233 00fe 0193     		str	r3, [sp, #4]
 234              	.L17:
 235              		.loc 1 120 0 discriminator 1
 236 0100 019A     		ldr	r2, [sp, #4]
 237 0102 0D4B     		ldr	r3, .L22+32
 238 0104 9A42     		cmp	r2, r3
 239 0106 F8D9     		bls	.L18
 240 0108 89E7     		b	.L19
 241              	.LVL32:
 242              	.L7:
  52:main.c        ****                     return 0;
 243              		.loc 1 52 0 is_stmt 1
 244 010a 0C48     		ldr	r0, .L22+36
 245              	.LVL33:
 246 010c FFF7FEFF 		bl	UART_PutString
 247              	.LVL34:
 248              	.LBE2:
 121:main.c        ****         
 122:main.c        ****     } // end for
 123:main.c        ****     
 124:main.c        **** } // end main...
 249              		.loc 1 124 0
 250 0110 0020     		movs	r0, #0
 251 0112 02B0     		add	sp, sp, #8
 252              		.cfi_def_cfa_offset 8
 253              		@ sp needed
 254 0114 10BD     		pop	{r4, pc}
 255              	.L23:
 256 0116 00BF     		.align	2
 257              	.L22:
 258 0118 00000000 		.word	.LANCHOR0
 259 011c 00000000 		.word	.LC0
 260 0120 C8000000 		.word	.LC1
 261 0124 20010000 		.word	.LC2
 262 0128 40010000 		.word	.LC4
 263 012c 58010000 		.word	.LC5
 264 0130 74010000 		.word	.LC6
 265 0134 8C010000 		.word	.LC7
 266 0138 3F420F00 		.word	999999
 267 013c 34010000 		.word	.LC3
 268              		.cfi_endproc
 269              	.LFE64:
 270              		.size	main, .-main
 271              		.section	.rodata.str1.4,"aMS",%progbits,1
 272              		.align	2
 273              	.LC0:
 274 0000 496E7374 		.ascii	"Instructions: \012\015 Press x to quit! \012\015 Pr"
ARM GAS  C:\Users\seppi\AppData\Local\Temp\cc81mRap.s 			page 8


 274      72756374 
 274      696F6E73 
 274      3A200A0D 
 274      20507265 
 275 0027 65737320 		.ascii	"ess g to toggle green light \012\015 Press y to tog"
 275      6720746F 
 275      20746F67 
 275      676C6520 
 275      67726565 
 276 0054 676C6520 		.ascii	"gle yellow light \012\015 Press r to toggle red lig"
 276      79656C6C 
 276      6F77206C 
 276      69676874 
 276      200A0D20 
 277 0081 6874200A 		.ascii	"ht \012\015 Press the botton(s) on the very bottom "
 277      0D205072 
 277      65737320 
 277      74686520 
 277      626F7474 
 278 00ae 746F2074 		.ascii	"to toggle white light \012\015\000"
 278      6F67676C 
 278      65207768 
 278      69746520 
 278      6C696768 
 279 00c7 00       		.space	1
 280              	.LC1:
 281 00c8 4D505332 		.ascii	"MPS21_Prakt_2 (ver. 1.2) - FreeSoC2, PSoC 5LP, \012"
 281      315F5072 
 281      616B745F 
 281      32202876 
 281      65722E20 
 282 00f8 0D536562 		.ascii	"\015Sebastian Zill, Nov 14 2021 20:45:08\000"
 282      61737469 
 282      616E205A 
 282      696C6C2C 
 282      204E6F76 
 283 011e 0000     		.space	2
 284              	.LC2:
 285 0120 0A0D5765 		.ascii	"\012\015Welcome! %s\012\015 %s\000"
 285      6C636F6D 
 285      65212025 
 285      730A0D20 
 285      257300
 286 0133 00       		.space	1
 287              	.LC3:
 288 0134 2E2E2E20 		.ascii	"... Bye! \012\015\000"
 288      42796521 
 288      200A0D00 
 289              	.LC4:
 290 0140 47726565 		.ascii	"Green light toggled! \012\015\000"
 290      6E206C69 
 290      67687420 
 290      746F6767 
 290      6C656421 
 291              	.LC5:
 292 0158 59656C6C 		.ascii	"Yellow light toggled! \012\015\000"
 292      6F77206C 
ARM GAS  C:\Users\seppi\AppData\Local\Temp\cc81mRap.s 			page 9


 292      69676874 
 292      20746F67 
 292      676C6564 
 293 0171 000000   		.space	3
 294              	.LC6:
 295 0174 52656420 		.ascii	"Red light toggled! \012\015\000"
 295      6C696768 
 295      7420746F 
 295      67676C65 
 295      6421200A 
 296 018a 0000     		.space	2
 297              	.LC7:
 298 018c 65727761 		.ascii	"erwarte ein <x>, <g>, <y> oder <r>, aber <%c> wurde"
 298      72746520 
 298      65696E20 
 298      3C783E2C 
 298      203C673E 
 299 01bf 2065696E 		.ascii	" eingegeben\012\015\000"
 299      67656765 
 299      62656E0A 
 299      0D00
 300              		.bss
 301              		.align	2
 302              		.set	.LANCHOR0,. + 0
 303              		.type	buffer, %object
 304              		.size	buffer, 128
 305              	buffer:
 306 0000 00000000 		.space	128
 306      00000000 
 306      00000000 
 306      00000000 
 306      00000000 
 307              		.text
 308              	.Letext0:
 309              		.file 2 "c:\\program files (x86)\\cypress\\psoc creator\\4.4\\psoc creator\\import\\gnu\\arm\\5.4.
 310              		.file 3 "c:\\program files (x86)\\cypress\\psoc creator\\4.4\\psoc creator\\import\\gnu\\arm\\5.4.
 311              		.file 4 "Generated_Source\\PSoC5/UART.h"
 312              		.file 5 "Generated_Source\\PSoC5/Pin_N_G.h"
 313              		.file 6 "Generated_Source\\PSoC5/Pin_N_Y.h"
 314              		.file 7 "Generated_Source\\PSoC5/Pin_N_R.h"
 315              		.file 8 "c:\\program files (x86)\\cypress\\psoc creator\\4.4\\psoc creator\\import\\gnu\\arm\\5.4.
 316              		.file 9 "Generated_Source\\PSoC5/Pin_CWEW.h"
 317              		.file 10 "Generated_Source\\PSoC5/Pin_E_CW.h"
 318              		.file 11 "Generated_Source\\PSoC5/core_cm3.h"