ARM GAS  C:\Users\seppi\AppData\Local\Temp\ccN7LQnq.s 			page 1


   1              		.syntax unified
   2              		.cpu cortex-m3
   3              		.fpu softvfp
   4              		.eabi_attribute 20, 1
   5              		.eabi_attribute 21, 1
   6              		.eabi_attribute 23, 3
   7              		.eabi_attribute 24, 1
   8              		.eabi_attribute 25, 1
   9              		.eabi_attribute 26, 1
  10              		.eabi_attribute 30, 6
  11              		.eabi_attribute 34, 1
  12              		.eabi_attribute 18, 4
  13              		.thumb
  14              		.syntax unified
  15              		.file	"main.c"
  16              		.text
  17              	.Ltext0:
  18              		.cfi_sections	.debug_frame
  19              		.bss
  20              		.align	2
  21              	buffer:
  22 0000 00000000 		.space	128
  22      00000000 
  22      00000000 
  22      00000000 
  22      00000000 
  23              	cRx:
  24 0080 00       		.space	1
  25              		.section	.text.MyIsrUartRX,"ax",%progbits
  26              		.align	2
  27              		.global	MyIsrUartRX
  28              		.thumb
  29              		.thumb_func
  30              		.type	MyIsrUartRX, %function
  31              	MyIsrUartRX:
  32              	.LFB64:
  33              		.file 1 "main.c"
   1:main.c        **** /* ========================================
   2:main.c        ****  *
   3:main.c        ****  * Copyright R. Mayer, h_da, FbI, 2019
   4:main.c        ****  * All Rights Reserved
   5:main.c        ****  * UNPUBLISHED, LICENSED SOFTWARE.
   6:main.c        ****  *
   7:main.c        ****  * CONFIDENTIAL AND PROPRIETARY INFORMATION
   8:main.c        ****  * WHICH IS THE PROPERTY OF your company.
   9:main.c        ****  *
  10:main.c        ****  * ========================================
  11:main.c        ****  */
  12:main.c        **** #include "project.h"
  13:main.c        **** #include "main.h"
  14:main.c        **** #include <stdio.h>          // für string-Operationen wie sprintf
  15:main.c        **** 
  16:main.c        **** /*
  17:main.c        ****  * Diese Definitionen ermöglichen es, 
  18:main.c        ****  * einfach Informationen auf den Bildschirm zu schreiben
  19:main.c        ****  */
  20:main.c        **** #define _VERSION_NR     "ver. 1.0"              //!< Version number. Please update
ARM GAS  C:\Users\seppi\AppData\Local\Temp\ccN7LQnq.s 			page 2


  21:main.c        **** #define _PROJECT_NAME   "MPS21_Prakt_3"         //!< Project name
  22:main.c        **** #define _PROCESSOR      "PSoC 5LP"              //!< Processor type
  23:main.c        **** #define _DEVICE_NAME    "FreeSoC2"              //!< Board or device type
  24:main.c        **** #define _AUTHOR_        "Sebastian Zill"
  25:main.c        **** #define _COMPANY        "Template MPS 3"
  26:main.c        **** // Makros für LED io (wieder) definieren
  27:main.c        **** #define LED_ON  (0u)                //!< LED on (active low)
  28:main.c        **** #define LED_OFF (1u)                //!< LED off (active low)
  29:main.c        **** /* ++++++++++++++++++++++++++++++++++
  30:main.c        ****  * +++ Switche für Musterlösungen +++ 
  31:main.c        ****  * ++++++++++++++++++++++++++++++++++ */
  32:main.c        **** 
  33:main.c        **** // String für die Anzeige zusammenbauen
  34:main.c        **** #define _VERSTR_       (_PROJECT_NAME", "_DEVICE_NAME", "_PROCESSOR", "_VERSION_NR"\n\r"\
  35:main.c        **** _AUTHOR_" ("_COMPANY"), "__DATE__" "__TIME__)
  36:main.c        **** 
  37:main.c        **** /* 
  38:main.c        ****  * String Buffer für Anzeige am Bildschirm anlegen.
  39:main.c        ****  * Auf die maximale Größe achten!
  40:main.c        ****  */
  41:main.c        **** #define BUFFER_SIZE 128             //!< string output buffer size for sprintf
  42:main.c        **** static char buffer[BUFFER_SIZE];    //!< buffer (global) for sprintf
  43:main.c        **** 
  44:main.c        **** static char cRx = 0;                //!< character from UART, visible within main.c
  45:main.c        **** /** 
  46:main.c        ****  * UART RX interrupt service routine.
  47:main.c        ****  *
  48:main.c        ****  * Collect a characters from UART into a global input variable.
  49:main.c        ****  * @see cRx
  50:main.c        ****  */
  51:main.c        **** CY_ISR( MyIsrUartRX )
  52:main.c        **** {
  34              		.loc 1 52 0
  35              		.cfi_startproc
  36              		@ args = 0, pretend = 0, frame = 0
  37              		@ frame_needed = 1, uses_anonymous_args = 0
  38 0000 80B5     		push	{r7, lr}
  39              		.cfi_def_cfa_offset 8
  40              		.cfi_offset 7, -8
  41              		.cfi_offset 14, -4
  42 0002 00AF     		add	r7, sp, #0
  43              		.cfi_def_cfa_register 7
  53:main.c        ****     cRx = UART_GetChar();       // read and copy char
  44              		.loc 1 53 0
  45 0004 FFF7FEFF 		bl	UART_GetChar
  46 0008 0346     		mov	r3, r0
  47 000a 1A46     		mov	r2, r3
  48 000c 014B     		ldr	r3, .L2
  49 000e 1A70     		strb	r2, [r3]
  54:main.c        **** }
  50              		.loc 1 54 0
  51 0010 00BF     		nop
  52 0012 80BD     		pop	{r7, pc}
  53              	.L3:
  54              		.align	2
  55              	.L2:
  56 0014 80000000 		.word	cRx
ARM GAS  C:\Users\seppi\AppData\Local\Temp\ccN7LQnq.s 			page 3


  57              		.cfi_endproc
  58              	.LFE64:
  59              		.size	MyIsrUartRX, .-MyIsrUartRX
  60              		.bss
  61              	fCWEW_Isr:
  62 0081 00       		.space	1
  63              		.section	.text.MyIsrCWEW,"ax",%progbits
  64              		.align	2
  65              		.global	MyIsrCWEW
  66              		.thumb
  67              		.thumb_func
  68              		.type	MyIsrCWEW, %function
  69              	MyIsrCWEW:
  70              	.LFB65:
  55:main.c        **** 
  56:main.c        **** static uint8_t fCWEW_Isr = 0;   //!< flag CW EW button isr, visible within main.c
  57:main.c        **** /** 
  58:main.c        ****  * Interrupt isr_CWSN for button Pin_CWSN interrupt service routine.
  59:main.c        ****  *
  60:main.c        ****  * @see fCWEW_Isr
  61:main.c        ****  */
  62:main.c        **** CY_ISR( MyIsrCWEW ) // Wird bei Buttonpress ausgeführt
  63:main.c        **** {
  71              		.loc 1 63 0
  72              		.cfi_startproc
  73              		@ args = 0, pretend = 0, frame = 0
  74              		@ frame_needed = 1, uses_anonymous_args = 0
  75 0000 80B5     		push	{r7, lr}
  76              		.cfi_def_cfa_offset 8
  77              		.cfi_offset 7, -8
  78              		.cfi_offset 14, -4
  79 0002 00AF     		add	r7, sp, #0
  80              		.cfi_def_cfa_register 7
  64:main.c        ****     Pin_CWEW_ClearInterrupt();  // Clear Interrupt
  81              		.loc 1 64 0
  82 0004 FFF7FEFF 		bl	Pin_CWEW_ClearInterrupt
  65:main.c        ****     fCWEW_Isr = 1;              // set flag 
  83              		.loc 1 65 0
  84 0008 024B     		ldr	r3, .L5
  85 000a 0122     		movs	r2, #1
  86 000c 1A70     		strb	r2, [r3]
  66:main.c        **** }
  87              		.loc 1 66 0
  88 000e 00BF     		nop
  89 0010 80BD     		pop	{r7, pc}
  90              	.L6:
  91 0012 00BF     		.align	2
  92              	.L5:
  93 0014 81000000 		.word	fCWEW_Isr
  94              		.cfi_endproc
  95              	.LFE65:
  96              		.size	MyIsrCWEW, .-MyIsrCWEW
  97              		.data
  98              		.align	2
  99              		.type	clk_count, %object
 100              		.size	clk_count, 4
 101              	clk_count:
ARM GAS  C:\Users\seppi\AppData\Local\Temp\ccN7LQnq.s 			page 4


 102 0000 01000000 		.word	1
 103              		.bss
 104              	clk_flag:
 105 0082 00       		.space	1
 106              		.section	.text.IsrAppClk,"ax",%progbits
 107              		.align	2
 108              		.global	IsrAppClk
 109              		.thumb
 110              		.thumb_func
 111              		.type	IsrAppClk, %function
 112              	IsrAppClk:
 113              	.LFB66:
  67:main.c        **** 
  68:main.c        **** static int clk_count = 1;
  69:main.c        **** static uint8_t clk_flag = 0;
  70:main.c        **** /** 
  71:main.c        ****  * Application clock interrupt service routine for isr_Clk
  72:main.c        ****  *
  73:main.c        ****  * @see fClock
  74:main.c        ****  */
  75:main.c        **** CY_ISR( IsrAppClk )
  76:main.c        **** {
 114              		.loc 1 76 0
 115              		.cfi_startproc
 116              		@ args = 0, pretend = 0, frame = 0
 117              		@ frame_needed = 1, uses_anonymous_args = 0
 118              		@ link register save eliminated.
 119 0000 80B4     		push	{r7}
 120              		.cfi_def_cfa_offset 4
 121              		.cfi_offset 7, -4
 122 0002 00AF     		add	r7, sp, #0
 123              		.cfi_def_cfa_register 7
  77:main.c        ****     clk_count++;
 124              		.loc 1 77 0
 125 0004 0E4B     		ldr	r3, .L10
 126 0006 1B68     		ldr	r3, [r3]
 127 0008 0133     		adds	r3, r3, #1
 128 000a 0D4A     		ldr	r2, .L10
 129 000c 1360     		str	r3, [r2]
  78:main.c        ****     if (clk_count % 1000 == 0)  // Reached 1000th hz call for 1/1000sec => 1 sec passed
 130              		.loc 1 78 0
 131 000e 0C4B     		ldr	r3, .L10
 132 0010 1A68     		ldr	r2, [r3]
 133 0012 0C4B     		ldr	r3, .L10+4
 134 0014 83FB0213 		smull	r1, r3, r3, r2
 135 0018 9911     		asrs	r1, r3, #6
 136 001a D317     		asrs	r3, r2, #31
 137 001c CB1A     		subs	r3, r1, r3
 138 001e 4FF47A71 		mov	r1, #1000
 139 0022 01FB03F3 		mul	r3, r1, r3
 140 0026 D31A     		subs	r3, r2, r3
 141 0028 002B     		cmp	r3, #0
 142 002a 03D1     		bne	.L8
  79:main.c        ****     {
  80:main.c        ****         clk_flag = 1;
 143              		.loc 1 80 0
 144 002c 064B     		ldr	r3, .L10+8
ARM GAS  C:\Users\seppi\AppData\Local\Temp\ccN7LQnq.s 			page 5


 145 002e 0122     		movs	r2, #1
 146 0030 1A70     		strb	r2, [r3]
  81:main.c        ****         return;
 147              		.loc 1 81 0
 148 0032 02E0     		b	.L7
 149              	.L8:
  82:main.c        ****     }
  83:main.c        ****     clk_flag = 0;
 150              		.loc 1 83 0
 151 0034 044B     		ldr	r3, .L10+8
 152 0036 0022     		movs	r2, #0
 153 0038 1A70     		strb	r2, [r3]
 154              	.L7:
  84:main.c        **** }
 155              		.loc 1 84 0
 156 003a BD46     		mov	sp, r7
 157              		.cfi_def_cfa_register 13
 158              		@ sp needed
 159 003c 80BC     		pop	{r7}
 160              		.cfi_restore 7
 161              		.cfi_def_cfa_offset 0
 162 003e 7047     		bx	lr
 163              	.L11:
 164              		.align	2
 165              	.L10:
 166 0040 00000000 		.word	clk_count
 167 0044 D34D6210 		.word	274877907
 168 0048 82000000 		.word	clk_flag
 169              		.cfi_endproc
 170              	.LFE66:
 171              		.size	IsrAppClk, .-IsrAppClk
 172              		.section	.text.toggleLED,"ax",%progbits
 173              		.align	2
 174              		.global	toggleLED
 175              		.thumb
 176              		.thumb_func
 177              		.type	toggleLED, %function
 178              	toggleLED:
 179              	.LFB67:
  85:main.c        **** 
  86:main.c        **** 
  87:main.c        **** // Toggle LED
  88:main.c        **** uint8_t toggleLED(uint8_t dword)
  89:main.c        **** {
 180              		.loc 1 89 0
 181              		.cfi_startproc
 182              		@ args = 0, pretend = 0, frame = 8
 183              		@ frame_needed = 1, uses_anonymous_args = 0
 184              		@ link register save eliminated.
 185 0000 80B4     		push	{r7}
 186              		.cfi_def_cfa_offset 4
 187              		.cfi_offset 7, -4
 188 0002 83B0     		sub	sp, sp, #12
 189              		.cfi_def_cfa_offset 16
 190 0004 00AF     		add	r7, sp, #0
 191              		.cfi_def_cfa_register 7
 192 0006 0346     		mov	r3, r0
ARM GAS  C:\Users\seppi\AppData\Local\Temp\ccN7LQnq.s 			page 6


 193 0008 FB71     		strb	r3, [r7, #7]
  90:main.c        ****     if(dword == LED_ON)
 194              		.loc 1 90 0
 195 000a FB79     		ldrb	r3, [r7, #7]	@ zero_extendqisi2
 196 000c 002B     		cmp	r3, #0
 197 000e 01D1     		bne	.L13
  91:main.c        ****         return LED_OFF;
 198              		.loc 1 91 0
 199 0010 0123     		movs	r3, #1
 200 0012 00E0     		b	.L14
 201              	.L13:
  92:main.c        ****     else
  93:main.c        ****         return LED_ON;
 202              		.loc 1 93 0
 203 0014 0023     		movs	r3, #0
 204              	.L14:
  94:main.c        **** }
 205              		.loc 1 94 0
 206 0016 1846     		mov	r0, r3
 207 0018 0C37     		adds	r7, r7, #12
 208              		.cfi_def_cfa_offset 4
 209 001a BD46     		mov	sp, r7
 210              		.cfi_def_cfa_register 13
 211              		@ sp needed
 212 001c 80BC     		pop	{r7}
 213              		.cfi_restore 7
 214              		.cfi_def_cfa_offset 0
 215 001e 7047     		bx	lr
 216              		.cfi_endproc
 217              	.LFE67:
 218              		.size	toggleLED, .-toggleLED
 219              		.section	.rodata
 220              		.align	2
 221              	.LC0:
 222 0000 4D505332 		.ascii	"MPS21_Prakt_3, FreeSoC2, PSoC 5LP, ver. 1.0\012\015"
 222      315F5072 
 222      616B745F 
 222      332C2046 
 222      72656553 
 223 002d 53656261 		.ascii	"Sebastian Zill (Template MPS 3), Nov 24 2021 18:48:"
 223      73746961 
 223      6E205A69 
 223      6C6C2028 
 223      54656D70 
 224 0060 303900   		.ascii	"09\000"
 225 0063 00       		.align	2
 226              	.LC1:
 227 0064 0A0D5765 		.ascii	"\012\015Welcome! %s\012\015\000"
 227      6C636F6D 
 227      65212025 
 227      730A0D00 
 228              		.align	2
 229              	.LC2:
 230 0074 4D656E75 		.ascii	"Menu-Beispiel: Taste 'm' gedrueckt\012\015\000"
 230      2D426569 
 230      73706965 
 230      6C3A2054 
ARM GAS  C:\Users\seppi\AppData\Local\Temp\ccN7LQnq.s 			page 7


 230      61737465 
 231 0099 000000   		.align	2
 232              	.LC3:
 233 009c 54696D65 		.ascii	"Time passed: %d sec.\015\000"
 233      20706173 
 233      7365643A 
 233      20256420 
 233      7365632E 
 234              		.section	.text.main,"ax",%progbits
 235              		.align	2
 236              		.global	main
 237              		.thumb
 238              		.thumb_func
 239              		.type	main, %function
 240              	main:
 241              	.LFB68:
  95:main.c        **** 
  96:main.c        **** 
  97:main.c        **** /**
  98:main.c        ****  * Basisprojekt mit UART mit Interrupt, User Button mit Interrupt und Statusabfrage. 
  99:main.c        ****  * Pin-I/O Einfache Eingabe mit Button, Ausgabe mit LED
 100:main.c        ****  * für FreeSoC2
 101:main.c        ****  * 
 102:main.c        ****  * @author Ralf S. Mayer
 103:main.c        ****  * @date 2019-09-18
 104:main.c        ****  * @version 1.0
 105:main.c        ****  */
 106:main.c        **** int main(void)
 107:main.c        **** {
 242              		.loc 1 107 0
 243              		.cfi_startproc
 244              		@ args = 0, pretend = 0, frame = 8
 245              		@ frame_needed = 1, uses_anonymous_args = 0
 246 0000 80B5     		push	{r7, lr}
 247              		.cfi_def_cfa_offset 8
 248              		.cfi_offset 7, -8
 249              		.cfi_offset 14, -4
 250 0002 82B0     		sub	sp, sp, #8
 251              		.cfi_def_cfa_offset 16
 252 0004 00AF     		add	r7, sp, #0
 253              		.cfi_def_cfa_register 7
 108:main.c        ****     /* Initialize and start UART, register ISR */
 109:main.c        ****     UART_Start();                       // start UART
 254              		.loc 1 109 0
 255 0006 FFF7FEFF 		bl	UART_Start
 110:main.c        ****     isr_UART_RX_StartEx( MyIsrUartRX ); // register ISR, enable itr uart
 256              		.loc 1 110 0
 257 000a 2E48     		ldr	r0, .L24
 258 000c FFF7FEFF 		bl	isr_UART_RX_StartEx
 111:main.c        ****                                         // Bei empfangen eines Bytes wird der UART
 112:main.c        ****                                         // Interrupt ausgelöst
 113:main.c        **** 
 114:main.c        ****     /* Initialize and start MyIsrCWEW, register ISR */
 115:main.c        ****     isr_CWEW_StartEx( MyIsrCWEW );      // register CWEW itr
 259              		.loc 1 115 0
 260 0010 2D48     		ldr	r0, .L24+4
 261 0012 FFF7FEFF 		bl	isr_CWEW_StartEx
ARM GAS  C:\Users\seppi\AppData\Local\Temp\ccN7LQnq.s 			page 8


 116:main.c        ****     Pin_CWEW_ClearInterrupt();          // clear eventual interrupt
 262              		.loc 1 116 0
 263 0016 FFF7FEFF 		bl	Pin_CWEW_ClearInterrupt
 117:main.c        ****     isr_CWEW_ClearPending();            // clear eventual pending interrupt
 264              		.loc 1 117 0
 265 001a FFF7FEFF 		bl	isr_CWEW_ClearPending
 118:main.c        ****     
 119:main.c        ****     isr_Clk_StartEx( IsrAppClk );       // register application clock
 266              		.loc 1 119 0
 267 001e 2B48     		ldr	r0, .L24+8
 268 0020 FFF7FEFF 		bl	isr_Clk_StartEx
 120:main.c        ****     
 121:main.c        ****     CyGlobalIntEnable; /* Enable global interrupts. */
 269              		.loc 1 121 0
 270              		.syntax unified
 271              	@ 121 "main.c" 1
 272 0024 62B6     		CPSIE   i
 273              	@ 0 "" 2
 122:main.c        **** 
 123:main.c        ****     /* Welcome and info text Ausgabe */
 124:main.c        ****     sprintf( buffer, "\n\rWelcome! %s\n\r", _VERSTR_);  // formatiert in Buffer
 274              		.loc 1 124 0
 275              		.thumb
 276              		.syntax unified
 277 0026 2A4A     		ldr	r2, .L24+12
 278 0028 2A49     		ldr	r1, .L24+16
 279 002a 2B48     		ldr	r0, .L24+20
 280 002c FFF7FEFF 		bl	sprintf
 125:main.c        ****     UART_PutString( buffer );                           // Ausgabe auf UART
 281              		.loc 1 125 0
 282 0030 2948     		ldr	r0, .L24+20
 283 0032 FFF7FEFF 		bl	UART_PutString
 284              	.L22:
 126:main.c        **** 
 127:main.c        ****     // Applikationsschleife
 128:main.c        ****     for(;;)
 129:main.c        ****     {
 130:main.c        ****         /* 
 131:main.c        ****          * Character aus Uart ISR abfragen 
 132:main.c        ****          * Beipsiel für einfache Menuesteuerung
 133:main.c        ****          * Achtung: Für UART in diesem Programm ist ein zusätzlicher FTDI USB-TTL-Adapter notwend
 134:main.c        ****          */
 135:main.c        ****         if ( cRx )
 285              		.loc 1 135 0
 286 0036 294B     		ldr	r3, .L24+24
 287 0038 1B78     		ldrb	r3, [r3]	@ zero_extendqisi2
 288 003a 002B     		cmp	r3, #0
 289 003c 18D0     		beq	.L16
 290              	.LBB2:
 136:main.c        ****         {
 137:main.c        ****             char c = cRx;   // copy char
 291              		.loc 1 137 0
 292 003e 274B     		ldr	r3, .L24+24
 293 0040 1B78     		ldrb	r3, [r3]
 294 0042 FB71     		strb	r3, [r7, #7]
 138:main.c        ****             cRx = 0;        // nicht vergessen!!! Warum? Weil der cRx nur duch system Interrupt res
 295              		.loc 1 138 0
ARM GAS  C:\Users\seppi\AppData\Local\Temp\ccN7LQnq.s 			page 9


 296 0044 254B     		ldr	r3, .L24+24
 297 0046 0022     		movs	r2, #0
 298 0048 1A70     		strb	r2, [r3]
 139:main.c        ****             // +++ Menuesteuerung +++
 140:main.c        ****             switch ( c ) 
 299              		.loc 1 140 0
 300 004a FB79     		ldrb	r3, [r7, #7]	@ zero_extendqisi2
 301 004c 6D2B     		cmp	r3, #109
 302 004e 06D0     		beq	.L18
 303 0050 712B     		cmp	r3, #113
 304 0052 01D0     		beq	.L19
 305 0054 512B     		cmp	r3, #81
 306 0056 06D1     		bne	.L23
 307              	.L19:
 141:main.c        ****             {
 142:main.c        ****                 // Software reset, startet Programm neu
 143:main.c        ****                 case 'q':
 144:main.c        ****                 case 'Q':   // fallthrough
 145:main.c        ****                     CySoftwareReset();
 308              		.loc 1 145 0
 309 0058 FFF7FEFF 		bl	CySoftwareReset
 146:main.c        ****                     break;
 310              		.loc 1 146 0
 311 005c 08E0     		b	.L16
 312              	.L18:
 147:main.c        ****                 case 'm':   // so könnte man etwas steuern über die Konsole
 148:main.c        ****                     UART_PutString( "Menu-Beispiel: Taste 'm' gedrueckt\n\r" );
 313              		.loc 1 148 0
 314 005e 2048     		ldr	r0, .L24+28
 315 0060 FFF7FEFF 		bl	UART_PutString
 149:main.c        ****                     break;
 316              		.loc 1 149 0
 317 0064 04E0     		b	.L16
 318              	.L23:
 150:main.c        ****                 default:
 151:main.c        ****                     UART_PutChar( c );    // Buchstabe auf Bildschirm ausgeben
 319              		.loc 1 151 0
 320 0066 FB79     		ldrb	r3, [r7, #7]	@ zero_extendqisi2
 321 0068 1846     		mov	r0, r3
 322 006a FFF7FEFF 		bl	UART_PutChar
 152:main.c        ****                     break;
 323              		.loc 1 152 0
 324 006e 00BF     		nop
 325              	.L16:
 326              	.LBE2:
 153:main.c        ****             }  // end switch          
 154:main.c        ****         } // end if cRx
 155:main.c        ****         
 156:main.c        ****         
 157:main.c        ****         // Behandlung Button-Ereignis aus ISR und LED toggle
 158:main.c        ****         if ( fCWEW_Isr ) {
 327              		.loc 1 158 0
 328 0070 1C4B     		ldr	r3, .L24+32
 329 0072 1B78     		ldrb	r3, [r3]	@ zero_extendqisi2
 330 0074 002B     		cmp	r3, #0
 331 0076 0FD0     		beq	.L20
 159:main.c        ****             Pin_E_CW_Write( toggleLED( Pin_E_CW_Read() ) );
ARM GAS  C:\Users\seppi\AppData\Local\Temp\ccN7LQnq.s 			page 10


 332              		.loc 1 159 0
 333 0078 FFF7FEFF 		bl	Pin_E_CW_Read
 334 007c 0346     		mov	r3, r0
 335 007e 1846     		mov	r0, r3
 336 0080 FFF7FEFF 		bl	toggleLED
 337 0084 0346     		mov	r3, r0
 338 0086 1846     		mov	r0, r3
 339 0088 FFF7FEFF 		bl	Pin_E_CW_Write
 160:main.c        ****             UART_PutChar(7);// Spiele Ton ab mit Steuerzeichen BEL (7)
 340              		.loc 1 160 0
 341 008c 0720     		movs	r0, #7
 342 008e FFF7FEFF 		bl	UART_PutChar
 161:main.c        ****             fCWEW_Isr = 0;
 343              		.loc 1 161 0
 344 0092 144B     		ldr	r3, .L24+32
 345 0094 0022     		movs	r2, #0
 346 0096 1A70     		strb	r2, [r3]
 347              	.L20:
 162:main.c        ****         }
 163:main.c        ****         
 164:main.c        ****         // Behandlung CLK-Ereignis jede Sekunde
 165:main.c        ****         if ( clk_flag ) {
 348              		.loc 1 165 0
 349 0098 134B     		ldr	r3, .L24+36
 350 009a 1B78     		ldrb	r3, [r3]	@ zero_extendqisi2
 351 009c 002B     		cmp	r3, #0
 352 009e CAD0     		beq	.L22
 166:main.c        ****             sprintf( buffer, "Time passed: %d sec.\r", clk_count / 1000);
 353              		.loc 1 166 0
 354 00a0 124B     		ldr	r3, .L24+40
 355 00a2 1B68     		ldr	r3, [r3]
 356 00a4 124A     		ldr	r2, .L24+44
 357 00a6 82FB0312 		smull	r1, r2, r2, r3
 358 00aa 9211     		asrs	r2, r2, #6
 359 00ac DB17     		asrs	r3, r3, #31
 360 00ae D31A     		subs	r3, r2, r3
 361 00b0 1A46     		mov	r2, r3
 362 00b2 1049     		ldr	r1, .L24+48
 363 00b4 0848     		ldr	r0, .L24+20
 364 00b6 FFF7FEFF 		bl	sprintf
 167:main.c        ****             UART_PutString( buffer );
 365              		.loc 1 167 0
 366 00ba 0748     		ldr	r0, .L24+20
 367 00bc FFF7FEFF 		bl	UART_PutString
 168:main.c        ****         }
 169:main.c        ****                 
 170:main.c        ****     } // end for
 368              		.loc 1 170 0
 369 00c0 B9E7     		b	.L22
 370              	.L25:
 371 00c2 00BF     		.align	2
 372              	.L24:
 373 00c4 00000000 		.word	MyIsrUartRX
 374 00c8 00000000 		.word	MyIsrCWEW
 375 00cc 00000000 		.word	IsrAppClk
 376 00d0 00000000 		.word	.LC0
 377 00d4 64000000 		.word	.LC1
ARM GAS  C:\Users\seppi\AppData\Local\Temp\ccN7LQnq.s 			page 11


 378 00d8 00000000 		.word	buffer
 379 00dc 80000000 		.word	cRx
 380 00e0 74000000 		.word	.LC2
 381 00e4 81000000 		.word	fCWEW_Isr
 382 00e8 82000000 		.word	clk_flag
 383 00ec 00000000 		.word	clk_count
 384 00f0 D34D6210 		.word	274877907
 385 00f4 9C000000 		.word	.LC3
 386              		.cfi_endproc
 387              	.LFE68:
 388              		.size	main, .-main
 389              		.text
 390              	.Letext0:
 391              		.file 2 "c:\\program files (x86)\\cypress\\psoc creator\\4.4\\psoc creator\\import\\gnu\\arm\\5.4.
 392              		.file 3 "c:\\program files (x86)\\cypress\\psoc creator\\4.4\\psoc creator\\import\\gnu\\arm\\5.4.
 393              		.file 4 "Generated_Source\\PSoC5/core_cm3.h"